(dp0
I1
(lp1
I1483
aI625
aI257
aI1301
aI1269
asI2
(lp2
I937
aI752
aI405
aI1046
aI1294
asI3
(lp3
I1219
aI985
aI561
aI350
aI994
asI4
(lp4
I935
aI1122
aI1007
aI850
aI306
asI5
(lp5
I54
aI1294
aI117
aI1472
aI937
asI6
(lp6
I464
aI1377
aI707
aI811
aI516
asI7
(lp7
I1374
aI1373
aI1366
aI1364
aI1363
asI8
(lp8
I655
aI216
aI99
aI848
aI132
asI9
(lp9
I1295
aI14
aI1385
aI100
aI792
asI10
(lp10
I508
aI92
aI91
aI433
aI305
asI11
(lp11
I673
aI613
aI195
aI448
aI76
asI12
(lp12
I114
aI98
aI357
aI480
aI205
asI13
(lp13
I238
aI209
aI276
aI9
aI1357
asI14
(lp14
I344
aI1295
aI9
aI474
aI100
asI15
(lp15
I71
aI125
aI566
aI126
aI31
asI16
(lp16
I329
aI348
aI39
aI455
aI703
asI17
(lp17
I271
aI899
aI33
aI455
aI329
asI18
(lp18
I1380
aI1199
aI1536
aI1043
aI1065
asI19
(lp19
I462
aI48
aI484
aI131
aI509
asI20
(lp20
I463
aI1009
aI428
aI582
aI770
asI21
(lp21
I167
aI738
aI765
aI391
aI846
asI22
(lp22
I28
aI265
aI684
aI241
aI378
asI23
(lp23
I154
aI792
aI180
aI1143
aI1295
asI24
(lp24
I201
aI1012
aI455
aI68
aI329
asI25
(lp25
I799
aI1196
aI886
aI900
aI1328
asI26
(lp26
I1642
aI447
aI787
aI1665
aI1669
asI27
(lp27
I619
aI394
aI879
aI685
aI845
asI28
(lp28
I22
aI97
aI684
aI241
aI966
asI29
(lp29
I1309
aI951
aI706
aI373
aI1145
asI30
(lp30
I958
aI1137
aI505
aI1073
aI45
asI31
(lp31
I1443
aI71
aI588
aI95
aI1431
asI32
(lp32
I853
aI671
aI175
aI652
aI60
asI33
(lp33
I1459
aI1528
aI101
aI277
aI17
asI34
(lp34
I579
aI349
aI569
aI1078
aI667
asI35
(lp35
I574
aI442
aI555
aI1076
aI254
asI36
(lp36
I1003
aI983
aI1213
aI759
aI910
asI37
(lp37
I1234
aI1132
aI990
aI1212
aI1241
asI38
(lp38
I809
aI309
aI802
aI229
aI121
asI39
(lp39
I1114
aI1511
aI741
aI874
aI460
asI40
(lp40
I738
aI167
aI1315
aI765
aI21
asI41
(lp41
I763
aI833
aI271
aI790
aI17
asI42
(lp42
I693
aI47
aI56
aI182
aI1015
asI43
(lp43
I394
aI619
aI365
aI1480
aI27
asI44
(lp44
I622
aI1233
aI304
aI51
aI924
asI45
(lp45
I923
aI1073
aI499
aI606
aI30
asI46
(lp46
I921
aI980
aI922
aI1158
aI1558
asI47
(lp47
I42
aI56
aI693
aI521
aI340
asI48
(lp48
I615
aI484
aI493
aI19
aI185
asI49
(lp49
I918
aI1644
aI1612
aI1409
aI557
asI50
(lp50
I64
aI172
aI429
aI272
aI520
asI51
(lp51
I304
aI628
aI979
aI465
aI918
asI52
(lp52
I1062
aI1211
aI504
aI518
aI469
asI53
(lp53
I1093
aI637
aI1626
aI824
aI235
asI54
(lp54
I5
aI282
aI117
aI77
aI1294
asI55
(lp55
I188
aI956
aI382
aI200
aI730
asI56
(lp56
I47
aI42
aI475
aI433
aI214
asI57
(lp57
I1039
aI478
aI612
aI1451
aI58
asI58
(lp58
I57
aI1594
aI1342
aI306
aI251
asI59
(lp59
I653
aI647
aI529
aI615
aI303
asI60
(lp60
I514
aI652
aI93
aI61
aI664
asI61
(lp61
I654
aI512
aI663
aI1371
aI647
asI62
(lp62
I597
aI255
aI1016
aI905
aI576
asI63
(lp63
I748
aI866
aI905
aI148
aI339
asI64
(lp64
I429
aI50
aI272
aI172
aI736
asI65
(lp65
I387
aI747
aI549
aI953
aI6
asI66
(lp66
I468
aI692
aI88
aI73
aI568
asI67
(lp67
I219
aI288
aI895
aI384
aI184
asI68
(lp68
I698
aI206
aI455
aI24
aI547
asI69
(lp69
I241
aI204
aI1483
aI181
aI97
asI70
(lp70
I132
aI283
aI435
aI315
aI705
asI71
(lp71
I15
aI31
aI125
aI1443
aI588
asI72
(lp72
I712
aI284
aI147
aI1155
aI244
asI73
(lp73
I392
aI692
aI310
aI781
aI1041
asI74
(lp74
I880
aI1077
aI1376
aI865
aI1357
asI75
(lp75
I382
aI1547
aI1658
aI55
aI1499
asI76
(lp76
I218
aI448
aI1381
aI348
aI327
asI77
(lp77
I282
aI332
aI393
aI417
aI229
asI78
(lp78
I795
aI539
aI453
aI734
aI398
asI79
(lp79
I174
aI172
aI228
aI50
aI969
asI80
(lp80
I364
aI1271
aI706
aI817
aI231
asI81
(lp81
I320
aI902
aI1174
aI276
aI475
asI82
(lp82
I781
aI222
aI418
aI204
aI230
asI83
(lp83
I87
aI520
aI194
aI202
aI166
asI84
(lp84
I454
aI984
aI720
aI63
aI1480
asI85
(lp85
I600
aI1481
aI822
aI290
aI1055
asI86
(lp86
I1317
aI920
aI481
aI361
aI1137
asI87
(lp87
I83
aI166
aI805
aI1189
aI520
asI88
(lp88
I566
aI568
aI468
aI380
aI300
asI89
(lp89
I1149
aI1103
aI1202
aI190
aI1449
asI90
(lp90
I249
aI636
aI329
aI581
aI822
asI91
(lp91
I92
aI10
aI508
aI1114
aI433
asI92
(lp92
I10
aI508
aI91
aI305
aI642
asI93
(lp93
I1428
aI1131
aI517
aI61
aI81
asI94
(lp94
I294
aI1532
aI38
aI385
aI452
asI95
(lp95
I237
aI588
aI257
aI31
aI625
asI96
(lp96
I181
aI270
aI210
aI204
aI729
asI97
(lp97
I28
aI684
aI241
aI202
aI69
asI98
(lp98
I480
aI12
aI193
aI651
aI427
asI99
(lp99
I1243
aI1516
aI216
aI1381
aI8
asI100
(lp100
I197
aI134
aI1333
aI317
aI1238
asI101
(lp101
I354
aI870
aI295
aI1275
aI343
asI102
(lp102
I1672
aI627
aI1308
aI1622
aI788
asI103
(lp103
I997
aI1162
aI1094
aI991
aI130
asI104
(lp104
I594
aI1054
aI1095
aI1151
aI1257
asI105
(lp105
I852
aI830
aI1030
aI1139
aI907
asI106
(lp106
I840
aI846
aI1478
aI764
aI771
asI107
(lp107
I1391
aI1262
aI1484
aI745
aI1384
asI108
(lp108
I1015
aI10
aI508
aI581
aI92
asI109
(lp109
I218
aI403
aI431
aI115
aI296
asI110
(lp110
I819
aI984
aI35
aI540
aI769
asI111
(lp111
I1431
aI1443
aI471
aI918
aI421
asI112
(lp112
I1179
aI1002
aI377
aI986
aI138
asI113
(lp113
I253
aI1594
aI58
aI315
aI531
asI114
(lp114
I357
aI12
aI191
aI601
aI1202
asI115
(lp115
I431
aI658
aI403
aI218
aI210
asI116
(lp116
I867
aI509
aI543
aI653
aI519
asI117
(lp117
I54
aI1294
aI5
aI937
aI2
asI118
(lp118
I866
aI1152
aI755
aI1016
aI1032
asI119
(lp119
I1372
aI1390
aI1323
aI1068
aI1373
asI120
(lp120
I374
aI1257
aI1420
aI1534
aI931
asI121
(lp121
I905
aI332
aI916
aI739
aI597
asI122
(lp122
I635
aI412
aI1527
aI1291
aI240
asI123
(lp123
I751
aI233
aI1461
aI1453
aI550
asI124
(lp124
I718
aI661
aI867
aI644
aI185
asI125
(lp125
I393
aI662
aI685
aI71
aI332
asI126
(lp126
I1192
aI389
aI15
aI291
aI690
asI127
(lp127
I1125
aI192
aI357
aI187
aI1204
asI128
(lp128
I182
aI188
aI150
aI1012
aI1106
asI129
(lp129
I1189
aI1243
aI1643
aI1396
aI1516
asI130
(lp130
I997
aI1272
aI556
aI1162
aI103
asI131
(lp131
I504
aI663
aI19
aI48
aI1449
asI132
(lp132
I315
aI655
aI705
aI1599
aI70
asI133
(lp133
I279
aI735
aI283
aI196
aI501
asI134
(lp134
I494
aI185
aI100
aI1149
aI1449
asI135
(lp135
I1295
aI766
aI1026
aI792
aI1368
asI136
(lp136
I648
aI604
aI275
aI510
aI170
asI137
(lp137
I344
aI896
aI14
aI1187
aI474
asI138
(lp138
I1274
aI314
aI112
aI777
aI1508
asI139
(lp139
I449
aI264
aI803
aI245
aI252
asI140
(lp140
I815
aI117
aI576
aI255
aI1220
asI141
(lp141
I1516
aI1594
aI1396
aI614
aI1189
asI142
(lp142
I312
aI810
aI278
aI289
aI245
asI143
(lp143
I732
aI378
aI241
aI392
aI310
asI144
(lp144
I174
aI79
aI710
aI313
aI239
asI145
(lp145
I667
aI551
aI1496
aI1229
aI569
asI146
(lp146
I1108
aI1402
aI1536
aI1266
aI1475
asI147
(lp147
I712
aI578
aI72
aI670
aI284
asI148
(lp148
I748
aI417
aI619
aI1446
aI63
asI149
(lp149
I844
aI616
aI671
aI175
aI598
asI150
(lp150
I1098
aI305
aI1005
aI730
aI960
asI151
(lp151
I1331
aI1238
aI434
aI168
aI701
asI152
(lp152
I251
aI306
aI502
aI1332
aI1390
asI153
(lp153
I1007
aI915
aI1594
aI58
aI169
asI154
(lp154
I23
aI1295
aI1428
aI134
aI766
asI155
(lp155
I454
aI84
aI280
aI783
aI984
asI156
(lp156
I346
aI320
aI180
aI1174
aI188
asI157
(lp157
I234
aI1600
aI613
aI1201
aI1505
asI158
(lp158
I1273
aI539
aI565
aI542
aI1413
asI159
(lp159
I1540
aI1465
aI1477
aI117
aI5
asI160
(lp160
I952
aI1017
aI175
aI642
aI844
asI161
(lp161
I946
aI332
aI1220
aI282
aI755
asI162
(lp162
I750
aI863
aI213
aI510
aI724
asI163
(lp163
I1191
aI1328
aI1488
aI1027
aI626
asI164
(lp164
I1472
aI591
aI1518
aI1483
aI588
asI165
(lp165
I207
aI513
aI1451
aI478
aI847
asI166
(lp166
I87
aI57
aI1039
aI478
aI83
asI167
(lp167
I21
aI738
aI765
aI40
aI620
asI168
(lp168
I190
aI151
aI1331
aI606
aI701
asI169
(lp169
I166
aI1039
aI316
aI153
aI57
asI170
(lp170
I435
aI275
aI633
aI648
aI136
asI171
(lp171
I919
aI285
aI530
aI1143
aI494
asI172
(lp172
I50
aI173
aI64
aI272
aI79
asI173
(lp173
I172
aI673
aI613
aI736
aI50
asI174
(lp174
I79
aI313
aI172
aI144
aI272
asI175
(lp175
I671
aI320
aI902
aI81
aI160
asI176
(lp176
I195
aI228
aI129
aI1243
aI1381
asI177
(lp177
I505
aI958
aI198
aI461
aI203
asI178
(lp178
I511
aI644
aI185
aI766
aI493
asI179
(lp179
I209
aI1357
aI346
aI344
aI60
asI180
(lp180
I346
aI23
aI156
aI154
aI1385
asI181
(lp181
I210
aI204
aI96
aI69
aI239
asI182
(lp182
I128
aI693
aI188
aI813
aI156
asI183
(lp183
I1385
aI1080
aI1333
aI1295
aI100
asI184
(lp184
I448
aI721
aI327
aI218
aI76
asI185
(lp185
I134
aI48
aI443
aI661
aI494
asI186
(lp186
I710
aI173
aI115
aI673
aI1625
asI187
(lp187
I205
aI127
aI357
aI954
aI1125
asI188
(lp188
I200
aI55
aI293
aI461
aI646
asI189
(lp189
I1068
aI1323
aI297
aI119
aI958
asI190
(lp190
I302
aI606
aI1202
aI168
aI484
asI191
(lp191
I357
aI114
aI601
aI205
aI659
asI192
(lp192
I127
aI1204
aI1143
aI171
aI919
asI193
(lp193
I98
aI427
aI651
aI480
aI492
asI194
(lp194
I520
aI83
aI216
aI202
aI87
asI195
(lp195
I176
aI157
aI228
aI172
aI234
asI196
(lp196
I501
aI486
aI1115
aI279
aI660
asI197
(lp197
I100
aI317
aI269
aI19
aI1333
asI198
(lp198
I523
aI499
aI515
aI302
aI701
asI199
(lp199
I484
aI498
aI603
aI190
aI302
asI200
(lp200
I434
aI188
aI293
aI151
aI1331
asI201
(lp201
I24
aI1012
aI329
aI455
aI16
asI202
(lp202
I216
aI83
aI194
aI97
aI684
asI203
(lp203
I1514
aI461
aI177
aI89
aI523
asI204
(lp204
I181
aI239
aI418
aI210
aI69
asI205
(lp205
I187
aI191
aI357
aI12
aI618
asI206
(lp206
I547
aI68
aI1511
aI698
aI1118
asI207
(lp207
I262
aI165
aI638
aI1193
aI923
asI208
(lp208
I467
aI527
aI8
aI655
aI915
asI209
(lp209
I179
aI1428
aI346
aI238
aI276
asI210
(lp210
I181
aI96
aI204
aI115
aI710
asI211
(lp211
I262
aI608
aI1347
aI207
aI165
asI212
(lp212
I1008
aI631
aI883
aI980
aI381
asI213
(lp213
I510
aI506
aI462
aI750
aI887
asI214
(lp214
I1467
aI1388
aI1080
aI1525
aI1663
asI215
(lp215
I313
aI794
aI265
aI239
aI204
asI216
(lp216
I194
aI202
aI8
aI655
aI83
asI217
(lp217
I1265
aI244
aI992
aI822
aI1606
asI218
(lp218
I76
aI109
aI403
aI115
aI431
asI219
(lp219
I67
aI184
aI288
aI384
aI721
asI220
(lp220
I476
aI756
aI399
aI1051
aI785
asI221
(lp221
I242
aI1394
aI793
aI1113
aI964
asI222
(lp222
I230
aI566
aI82
aI568
aI588
asI223
(lp223
I515
aI915
aI1347
aI1101
aI302
asI224
(lp224
I504
aI131
aI663
aI507
aI1211
asI225
(lp225
I391
aI1157
aI569
aI941
aI1480
asI226
(lp226
I270
aI385
aI232
aI550
aI630
asI227
(lp227
I229
aI731
aI77
aI809
aI380
asI228
(lp228
I176
aI172
aI79
aI710
aI195
asI229
(lp229
I809
aI77
aI417
aI54
aI905
asI230
(lp230
I222
aI300
aI82
aI380
aI468
asI231
(lp231
I1074
aI1660
aI1258
aI364
aI572
asI232
(lp232
I226
aI385
aI270
aI630
aI550
asI233
(lp233
I550
aI1046
aI123
aI1410
aI937
asI234
(lp234
I157
aI1600
aI1201
aI1169
aI1264
asI235
(lp235
I824
aI358
aI1059
aI940
aI637
asI236
(lp236
I246
aI1147
aI610
aI248
aI466
asI237
(lp237
I95
aI257
aI568
aI31
aI966
asI238
(lp238
I1629
aI276
aI902
aI209
aI1174
asI239
(lp239
I418
aI204
aI265
aI82
aI181
asI240
(lp240
I260
aI410
aI635
aI780
aI122
asI241
(lp241
I389
aI69
aI378
aI143
aI97
asI242
(lp242
I793
aI221
aI1394
aI497
aI1456
asI243
(lp243
I1185
aI769
aI110
aI540
aI1076
asI244
(lp244
I1265
aI72
aI1196
aI712
aI886
asI245
(lp245
I620
aI449
aI142
aI304
aI690
asI246
(lp246
I236
aI502
aI1326
aI1288
aI531
asI247
(lp247
I545
aI1183
aI439
aI564
aI894
asI248
(lp248
I236
aI709
aI1147
aI610
aI246
asI249
(lp249
I581
aI90
aI329
aI16
aI636
asI250
(lp250
I636
aI348
aI1606
aI329
aI992
asI251
(lp251
I306
aI58
aI7
aI152
aI1342
asI252
(lp252
I391
aI264
aI569
aI579
aI951
asI253
(lp253
I531
aI113
aI7
aI1326
aI935
asI254
(lp254
I574
aI839
aI442
aI35
aI34
asI255
(lp255
I815
aI576
aI597
aI332
aI62
asI256
(lp256
I1395
aI1524
aI1158
aI524
aI855
asI257
(lp257
I1269
aI470
aI625
aI95
aI1
asI258
(lp258
I939
aI216
aI8
aI356
aI272
asI259
(lp259
I1188
aI1413
aI1258
aI373
aI80
asI260
(lp260
I240
aI780
aI410
aI679
aI384
asI261
(lp261
I401
aI940
aI719
aI358
aI235
asI262
(lp262
I207
aI211
aI165
aI608
aI275
asI263
(lp263
I1287
aI1336
aI353
aI1126
aI548
asI264
(lp264
I252
aI951
aI801
aI585
aI569
asI265
(lp265
I239
aI22
aI313
aI310
aI204
asI266
(lp266
I929
aI680
aI764
aI722
aI881
asI267
(lp267
I1055
aI431
aI403
aI573
aI296
asI268
(lp268
I347
aI433
aI447
aI1321
aI26
asI269
(lp269
I168
aI197
aI190
aI1599
aI608
asI270
(lp270
I226
aI96
aI232
aI385
aI418
asI271
(lp271
I17
aI899
aI33
aI763
aI411
asI272
(lp272
I429
aI939
aI50
aI520
aI64
asI273
(lp273
I287
aI331
aI68
aI1519
aI1116
asI274
(lp274
I754
aI690
aI402
aI662
aI291
asI275
(lp275
I136
aI262
aI510
aI648
aI170
asI276
(lp276
I238
aI475
aI81
aI902
aI320
asI277
(lp277
I1459
aI1010
aI1528
aI1399
aI1255
asI278
(lp278
I785
aI472
aI810
aI749
aI399
asI279
(lp279
I133
aI196
aI501
aI660
aI735
asI280
(lp280
I155
aI934
aI63
aI476
aI748
asI281
(lp281
I1016
aI1249
aI538
aI1190
aI2
asI282
(lp282
I332
aI77
aI54
aI366
aI393
asI283
(lp283
I435
aI633
aI501
aI133
aI279
asI284
(lp284
I1476
aI1477
aI1155
aI1595
aI1596
asI285
(lp285
I1103
aI171
aI530
aI1514
aI1361
asI286
(lp286
I522
aI506
aI497
aI604
aI793
asI287
(lp287
I331
aI1542
aI1470
aI307
aI367
asI288
(lp288
I327
aI833
aI721
aI219
aI184
asI289
(lp289
I371
aI570
aI723
aI1221
aI823
asI290
(lp290
I822
aI636
aI992
aI90
aI987
asI291
(lp291
I662
aI749
aI402
aI685
aI845
asI292
(lp292
I308
aI791
aI570
aI724
aI782
asI293
(lp293
I503
aI434
aI1372
aI1390
aI200
asI294
(lp294
I385
aI630
aI944
aI161
aI94
asI295
(lp295
I331
aI1107
aI307
aI101
aI287
asI296
(lp296
I1055
aI403
aI987
aI267
aI1510
asI297
(lp297
I1323
aI1372
aI189
aI119
aI1347
asI298
(lp298
I762
aI1470
aI287
aI327
aI993
asI299
(lp299
I898
aI1177
aI362
aI823
aI680
asI300
(lp300
I380
aI393
aI77
aI88
aI282
asI301
(lp301
I1074
aI244
aI72
aI712
aI231
asI302
(lp302
I601
aI190
aI1202
aI223
aI701
asI303
(lp303
I529
aI851
aI59
aI656
aI653
asI304
(lp304
I628
aI622
aI44
aI51
aI1112
asI305
(lp305
I1098
aI92
aI150
aI10
aI646
asI306
(lp306
I1390
aI1007
aI1372
aI7
aI1342
asI307
(lp307
I287
aI295
aI331
aI1470
aI1328
asI308
(lp308
I1038
aI292
aI782
aI791
aI621
asI309
(lp309
I802
aI38
aI1145
aI916
aI84
asI310
(lp310
I392
aI73
aI265
aI143
aI732
asI311
(lp311
I381
aI1176
aI469
aI372
aI518
asI312
(lp312
I142
aI570
aI823
aI723
aI371
asI313
(lp313
I794
aI215
aI265
aI174
aI310
asI314
(lp314
I777
aI1508
aI977
aI1229
aI858
asI315
(lp315
I132
aI113
aI435
aI211
aI1599
asI316
(lp316
I659
aI520
aI318
aI169
aI166
asI317
(lp317
I483
aI197
aI492
aI100
aI190
asI318
(lp318
I651
aI659
aI316
aI467
aI498
asI319
(lp319
I345
aI843
aI248
aI236
aI347
asI320
(lp320
I81
aI1174
aI346
aI902
aI671
asI321
(lp321
I335
aI13
aI1629
aI56
aI238
asI322
(lp322
I409
aI1091
aI472
aI623
aI812
asI323
(lp323
I784
aI1308
aI1437
aI342
aI788
asI324
(lp324
I872
aI108
aI160
aI952
aI715
asI325
(lp325
I1059
aI1652
aI875
aI859
aI913
asI326
(lp326
I1016
aI405
aI755
aI2
aI255
asI327
(lp327
I298
aI76
aI184
aI218
aI288
asI328
(lp328
I300
aI402
aI739
aI380
aI393
asI329
(lp329
I455
aI899
aI16
aI702
aI249
asI330
(lp330
I1011
aI972
aI1150
aI477
aI1335
asI331
(lp331
I287
aI1440
aI295
aI1237
aI367
asI332
(lp332
I282
aI393
aI255
aI77
aI417
asI333
(lp333
I405
aI1220
aI161
aI755
aI326
asI334
(lp334
I1114
aI91
aI92
aI39
aI874
asI335
(lp335
I321
aI1513
aI1527
aI1128
aI838
asI336
(lp336
I878
aI929
aI1206
aI680
aI407
asI337
(lp337
I1084
aI947
aI524
aI1365
aI1312
asI338
(lp338
I1139
aI926
aI1047
aI1090
aI554
asI339
(lp339
I999
aI1285
aI1620
aI866
aI1042
asI340
(lp340
I475
aI320
aI81
aI693
aI1174
asI341
(lp341
I623
aI1253
aI828
aI812
aI1408
asI342
(lp342
I1308
aI1622
aI1105
aI323
aI102
asI343
(lp343
I1135
aI891
aI1275
aI1219
aI725
asI344
(lp344
I137
aI14
aI1295
aI896
aI1428
asI345
(lp345
I464
aI972
aI953
aI1067
aI707
asI346
(lp346
I320
aI180
aI156
aI1174
aI81
asI347
(lp347
I268
aI433
aI248
aI1321
aI152
asI348
(lp348
I1542
aI16
aI703
aI250
aI218
asI349
(lp349
I34
aI1078
aI554
aI579
aI1047
asI350
(lp350
I1598
aI994
aI1163
aI1241
aI696
asI351
(lp351
I989
aI1313
aI1615
aI764
aI1212
asI352
(lp352
I1001
aI948
aI719
aI940
aI1291
asI353
(lp353
I832
aI444
aI1094
aI998
aI950
asI354
(lp354
I1275
aI786
aI1107
aI1155
aI1307
asI355
(lp355
I891
aI849
aI907
aI912
aI725
asI356
(lp356
I1044
aI69
aI939
aI181
aI210
asI357
(lp357
I114
aI191
aI1202
aI601
aI12
asI358
(lp358
I719
aI700
aI235
aI364
aI1052
asI359
(lp359
I1591
aI1161
aI1099
aI1322
aI1175
asI360
(lp360
I1429
aI1324
aI1086
aI1423
aI888
asI361
(lp361
I1062
aI1387
aI1332
aI86
aI1323
asI362
(lp362
I351
aI266
aI898
aI989
aI1313
asI363
(lp363
I725
aI1232
aI665
aI1135
aI343
asI364
(lp364
I80
aI1271
aI441
aI231
aI358
asI365
(lp365
I1105
aI1061
aI1157
aI666
aI409
asI366
(lp366
I1220
aI282
aI588
aI796
aI54
asI367
(lp367
I1237
aI1470
aI1468
aI1389
aI331
asI368
(lp368
I247
aI545
aI894
aI374
aI1183
asI369
(lp369
I1283
aI456
aI1496
aI1178
aI840
asI370
(lp370
I1210
aI827
aI563
aI1253
aI930
asI371
(lp371
I289
aI570
aI823
aI621
aI699
asI372
(lp372
I381
aI1150
aI883
aI311
aI1011
asI373
(lp373
I914
aI541
aI29
aI1540
aI804
asI374
(lp374
I120
aI368
aI981
aI545
aI1095
asI375
(lp375
I1230
aI1609
aI1165
aI1215
aI743
asI376
(lp376
I586
aI1314
aI1000
aI397
aI728
asI377
(lp377
I112
aI1508
aI442
aI1002
aI138
asI378
(lp378
I143
aI241
aI732
aI389
aI22
asI379
(lp379
I413
aI665
aI1598
aI350
aI1219
asI380
(lp380
I300
aI393
aI88
aI282
aI566
asI381
(lp381
I372
aI1150
aI311
aI883
aI631
asI382
(lp382
I1499
aI75
aI1118
aI610
aI1405
asI383
(lp383
I590
aI1419
aI1164
aI1013
aI1092
asI384
(lp384
I1188
aI817
aI259
aI219
aI67
asI385
(lp385
I226
aI232
aI270
aI630
aI796
asI386
(lp386
I843
aI401
aI40
aI1206
aI823
asI387
(lp387
I65
aI972
aI953
aI1067
aI947
asI388
(lp388
I862
aI577
aI1303
aI1489
aI586
asI389
(lp389
I241
aI126
aI378
aI97
aI660
asI390
(lp390
I1077
aI1386
aI1141
aI1495
aI1491
asI391
(lp391
I569
aI225
aI1157
aI34
aI579
asI392
(lp392
I310
aI73
aI143
aI692
aI265
asI393
(lp393
I125
aI332
aI417
aI282
aI685
asI394
(lp394
I619
aI27
aI879
aI845
aI1285
asI395
(lp395
I1273
aI1413
aI158
aI542
aI29
asI396
(lp396
I1280
aI640
aI997
aI991
aI772
asI397
(lp397
I1314
aI1489
aI1088
aI1303
aI862
asI398
(lp398
I901
aI1270
aI437
aI555
aI438
asI399
(lp399
I785
aI845
aI472
aI322
aI999
asI400
(lp400
I450
aI540
aI689
aI243
aI415
asI401
(lp401
I261
aI235
aI53
aI358
aI824
asI402
(lp402
I662
aI749
aI291
aI393
aI125
asI403
(lp403
I431
aI115
aI1055
aI296
aI267
asI404
(lp404
I526
aI429
aI969
aI419
aI651
asI405
(lp405
I326
aI2
aI1016
aI755
aI333
asI406
(lp406
I1246
aI1415
aI1179
aI1412
aI1300
asI407
(lp407
I1052
aI1178
aI831
aI1034
aI456
asI408
(lp408
I641
aI487
aI1194
aI1020
aI603
asI409
(lp409
I1620
aI322
aI472
aI999
aI821
asI410
(lp410
I679
aI702
aI637
aI824
aI899
asI411
(lp411
I426
aI1219
aI343
aI552
aI985
asI412
(lp412
I122
aI1527
aI1291
aI635
aI1057
asI413
(lp413
I379
aI665
aI350
aI908
aI771
asI414
(lp414
I537
aI469
aI631
aI221
aI793
asI415
(lp415
I280
aI689
aI400
aI155
aI449
asI416
(lp416
I676
aI496
aI660
aI423
aI486
asI417
(lp417
I393
aI905
aI685
aI332
aI255
asI418
(lp418
I239
aI204
aI781
aI82
aI96
asI419
(lp419
I496
aI423
aI969
aI404
aI732
asI420
(lp420
I1450
aI736
aI173
aI613
aI467
asI421
(lp421
I1549
aI691
aI1058
aI111
aI1173
asI422
(lp422
I441
aI106
aI1496
aI369
aI1283
asI423
(lp423
I486
aI735
aI660
aI97
aI419
asI424
(lp424
I440
aI758
aI1165
aI457
aI976
asI425
(lp425
I956
aI813
aI646
aI521
aI517
asI426
(lp426
I411
aI1231
aI913
aI985
aI672
asI427
(lp427
I651
aI480
aI193
aI98
aI1020
asI428
(lp428
I631
aI463
aI381
aI414
aI212
asI429
(lp429
I64
aI50
aI272
aI526
aI404
asI430
(lp430
I189
aI1068
aI1323
aI505
aI958
asI431
(lp431
I115
aI403
aI267
aI658
aI1301
asI432
(lp432
I1387
aI1193
aI1332
aI1372
aI1390
asI433
(lp433
I447
aI268
aI91
aI10
aI508
asI434
(lp434
I200
aI151
aI1388
aI1331
aI1321
asI435
(lp435
I602
aI283
aI633
aI170
aI501
asI436
(lp436
I1268
aI1288
aI1326
aI1488
aI1589
asI437
(lp437
I438
aI439
aI1213
aI564
aI901
asI438
(lp438
I439
aI437
aI564
aI1213
aI247
asI439
(lp439
I438
aI437
aI564
aI545
aI247
asI440
(lp440
I424
aI457
aI758
aI1165
aI1230
asI441
(lp441
I422
aI364
aI369
aI1271
aI1496
asI442
(lp442
I574
aI35
aI839
aI1023
aI555
asI443
(lp443
I483
aI492
aI484
aI185
aI511
asI444
(lp444
I473
aI1280
aI772
aI396
aI818
asI445
(lp445
I1201
aI1293
aI1169
aI1321
aI1064
asI446
(lp446
I830
aI852
aI1283
aI1231
aI907
asI447
(lp447
I1642
aI1665
aI1666
aI1669
aI1663
asI448
(lp448
I76
aI218
aI184
aI403
aI186
asI449
(lp449
I139
aI689
aI245
aI148
aI1480
asI450
(lp450
I892
aI726
aI826
aI585
aI540
asI451
(lp451
I797
aI245
aI1192
aI301
aI620
asI452
(lp452
I575
aI94
aI1532
aI728
aI1273
asI453
(lp453
I1209
aI78
aI1037
aI539
aI158
asI454
(lp454
I84
aI155
aI1480
aI984
aI1145
asI455
(lp455
I899
aI329
aI68
aI17
aI33
asI456
(lp456
I1283
aI369
aI1178
aI687
aI1420
asI457
(lp457
I440
aI424
aI758
aI983
aI669
asI458
(lp458
I962
aI1093
aI1335
aI1263
aI737
asI459
(lp459
I1172
aI1269
aI746
aI1389
aI485
asI460
(lp460
I477
aI1127
aI1298
aI1639
aI1511
asI461
(lp461
I1514
aI1361
aI1238
aI956
aI1131
asI462
(lp462
I19
aI506
aI509
aI213
aI510
asI463
(lp463
I428
aI631
aI381
aI1009
aI372
asI464
(lp464
I811
aI6
aI707
aI516
aI1377
asI465
(lp465
I51
aI727
aI691
aI421
aI746
asI466
(lp466
I1067
aI236
aI1628
aI1127
aI965
asI467
(lp467
I527
aI736
aI208
aI659
aI191
asI468
(lp468
I568
aI88
aI66
aI300
aI692
asI469
(lp469
I518
aI1176
aI1240
aI414
aI632
asI470
(lp470
I1269
aI966
aI257
aI746
aI1389
asI471
(lp471
I918
aI1612
aI111
aI1431
aI1107
asI472
(lp472
I1620
aI409
aI999
aI785
aI322
asI473
(lp473
I372
aI381
aI708
aI1150
aI1011
asI474
(lp474
I494
aI647
aI718
aI488
aI615
asI475
(lp475
I902
aI276
aI81
aI320
aI340
asI476
(lp476
I220
aI775
aI280
aI1102
aI553
asI477
(lp477
I1335
aI460
aI737
aI695
aI277
asI478
(lp478
I57
aI1039
aI612
aI165
aI1451
asI479
(lp479
I694
aI528
aI490
aI604
aI1286
asI480
(lp480
I98
aI511
aI487
aI603
aI12
asI481
(lp481
I1323
aI1111
aI920
aI86
aI645
asI482
(lp482
I170
aI165
aI211
aI513
aI515
asI483
(lp483
I317
aI511
aI492
aI493
aI443
asI484
(lp484
I190
aI606
aI603
aI927
aI48
asI485
(lp485
I805
aI459
aI1172
aI1389
aI686
asI486
(lp486
I196
aI423
aI660
aI279
aI133
asI487
(lp487
I408
aI603
aI641
aI480
aI1344
asI488
(lp488
I647
aI611
aI529
aI653
aI615
asI489
(lp489
I1194
aI611
aI656
aI641
aI615
asI490
(lp490
I927
aI513
aI528
aI641
aI519
asI491
(lp491
I705
aI133
aI735
aI498
aI318
asI492
(lp492
I483
aI443
aI317
aI511
aI603
asI493
(lp493
I511
aI603
aI483
aI48
aI484
asI494
(lp494
I474
aI647
aI134
aI530
aI615
asI495
(lp495
I936
aI1233
aI486
aI196
aI660
asI496
(lp496
I419
aI423
aI486
aI491
aI416
asI497
(lp497
I793
aI242
aI778
aI604
aI971
asI498
(lp498
I199
aI705
aI318
aI427
aI603
asI499
(lp499
I701
aI606
aI923
aI1331
aI198
asI500
(lp500
I1167
aI1400
aI888
aI924
aI1464
asI501
(lp501
I1115
aI196
aI435
aI283
aI633
asI502
(lp502
I246
aI935
aI1326
aI1288
aI531
asI503
(lp503
I293
aI434
aI306
aI1372
aI119
asI504
(lp504
I131
aI663
aI52
aI469
aI1211
asI505
(lp505
I958
aI189
aI1073
aI1323
aI177
asI506
(lp506
I462
aI286
aI509
aI604
aI510
asI507
(lp507
I1240
aI558
aI1131
aI469
aI654
asI508
(lp508
I10
aI92
aI91
aI646
aI75
asI509
(lp509
I462
aI19
aI506
aI131
aI504
asI510
(lp510
I604
aI136
aI275
aI213
aI750
asI511
(lp511
I493
aI483
aI603
aI178
aI443
asI512
(lp512
I654
aI1371
aI1240
aI61
aI956
asI513
(lp513
I165
aI657
aI490
aI927
aI847
asI514
(lp514
I60
aI61
aI654
aI537
aI664
asI515
(lp515
I1347
aI223
aI1451
aI198
aI57
asI516
(lp516
I811
aI1193
aI1338
aI1377
aI645
asI517
(lp517
I81
aI93
aI1174
aI1131
aI276
asI518
(lp518
I632
aI469
aI1405
aI1062
aI1211
asI519
(lp519
I927
aI490
aI484
aI48
aI615
asI520
(lp520
I194
aI83
aI316
aI272
aI216
asI521
(lp521
I425
aI47
aI813
aI182
aI646
asI522
(lp522
I286
aI887
aI604
aI506
aI525
asI523
(lp523
I198
aI601
aI302
aI618
aI1344
asI524
(lp524
I337
aI1395
aI256
aI855
aI836
asI525
(lp525
I242
aI851
aI221
aI793
aI607
asI526
(lp526
I651
aI404
aI429
aI316
aI64
asI527
(lp527
I467
aI208
aI445
aI1201
aI1064
asI528
(lp528
I490
aI657
aI927
aI479
aI513
asI529
(lp529
I303
aI653
aI647
aI59
aI537
asI530
(lp530
I1149
aI611
aI494
aI1361
aI615
asI531
(lp531
I253
aI1326
aI935
aI7
aI1122
asI532
(lp532
I1048
aI583
aI906
aI695
aI1299
asI533
(lp533
I1024
aI1109
aI650
aI884
aI882
asI534
(lp534
I1277
aI1322
aI1171
aI1099
aI1425
asI535
(lp535
I912
aI1072
aI578
aI800
aI1476
asI536
(lp536
I836
aI524
aI847
aI1282
aI806
asI537
(lp537
I653
aI529
aI414
aI59
aI303
asI538
(lp538
I1355
aI1409
aI918
aI281
aI979
asI539
(lp539
I795
aI158
aI542
aI1273
aI398
asI540
(lp540
I585
aI110
aI225
aI35
aI783
asI541
(lp541
I373
aI914
aI895
aI790
aI834
asI542
(lp542
I565
aI264
aI1659
aI539
aI1273
asI543
(lp543
I653
aI529
aI537
aI116
aI647
asI544
(lp544
I1607
aI1117
aI1639
aI1448
aI1656
asI545
(lp545
I247
aI894
aI439
aI438
aI1183
asI546
(lp546
I808
aI774
aI928
aI554
aI1047
asI547
(lp547
I206
aI943
aI1012
aI1399
aI68
asI548
(lp548
I716
aI791
aI1319
aI1054
aI400
asI549
(lp549
I747
aI799
aI65
aI699
aI1160
asI550
(lp550
I233
aI630
aI226
aI123
aI232
asI551
(lp551
I1496
aI667
aI145
aI1229
aI314
asI552
(lp552
I820
aI790
aI1135
aI907
aI891
asI553
(lp553
I749
aI662
aI291
aI63
aI402
asI554
(lp554
I1047
aI808
aI349
aI1078
aI595
asI555
(lp555
I574
aI35
aI442
aI839
aI894
asI556
(lp556
I997
aI1626
aI1162
aI798
aI773
asI557
(lp557
I1612
aI1107
aI1644
aI1421
aI1138
asI558
(lp558
I507
aI1240
aI654
aI512
aI1405
asI559
(lp559
I992
aI250
aI1188
aI90
aI636
asI560
(lp560
I1508
aI829
aI314
aI779
aI858
asI561
(lp561
I1205
aI1275
aI1517
aI985
aI1479
asI562
(lp562
I578
aI1046
aI937
aI752
aI2
asI563
(lp563
I717
aI930
aI858
aI777
aI595
asI564
(lp564
I1183
aI439
aI247
aI438
aI759
asI565
(lp565
I1659
aI1309
aI542
aI1270
aI158
asI566
(lp566
I568
aI88
aI222
aI380
aI125
asI567
(lp567
I1135
aI790
aI552
aI343
aI1410
asI568
(lp568
I566
aI88
aI468
aI222
aI300
asI569
(lp569
I391
aI579
aI34
aI667
aI225
asI570
(lp570
I371
aI289
aI312
aI699
aI723
asI571
(lp571
I1088
aI388
aI586
aI1314
aI1608
asI572
(lp572
I1258
aI231
aI1660
aI1413
aI1074
asI573
(lp573
I267
aI751
aI992
aI1055
aI431
asI574
(lp574
I442
aI254
aI35
aI839
aI555
asI575
(lp575
I1181
aI452
aI682
aI453
aI1413
asI576
(lp576
I255
aI815
aI597
aI62
aI140
asI577
(lp577
I388
aI1270
aI1489
aI590
aI862
asI578
(lp578
I562
aI1072
aI670
aI147
aI535
asI579
(lp579
I34
aI569
aI349
aI1446
aI1078
asI580
(lp580
I919
aI1368
aI192
aI1143
aI171
asI581
(lp581
I249
aI329
aI16
aI108
aI90
asI582
(lp582
I463
aI473
aI428
aI697
aI381
asI583
(lp583
I532
aI695
aI1048
aI39
aI477
asI584
(lp584
I1124
aI713
aI762
aI1643
aI634
asI585
(lp585
I35
aI540
aI574
aI1076
aI442
asI586
(lp586
I1303
aI388
aI571
aI862
aI1489
asI587
(lp587
I1381
aI1123
aI1243
aI1122
aI711
asI588
(lp588
I1483
aI366
aI625
aI31
aI164
asI589
(lp589
I1073
aI1137
aI970
aI851
aI964
asI590
(lp590
I383
aI1419
aI1092
aI36
aI1003
asI591
(lp591
I164
aI1472
aI1518
aI1431
aI1483
asI592
(lp592
I1447
aI1457
aI1460
aI1657
aI1627
asI593
(lp593
I1359
aI1334
aI1200
aI1384
aI1261
asI594
(lp594
I104
aI1337
aI1095
aI1151
aI1493
asI595
(lp595
I563
aI717
aI323
aI666
aI1661
asI596
(lp596
I1294
aI1518
aI1472
aI1431
aI937
asI597
(lp597
I815
aI1152
aI255
aI576
aI62
asI598
(lp598
I675
aI149
aI1146
aI137
aI896
asI599
(lp599
I1502
aI1621
aI1254
aI1304
aI1491
asI600
(lp600
I1000
aI1481
aI1662
aI85
aI1521
asI601
(lp601
I302
aI1202
aI523
aI190
aI1101
asI602
(lp602
I1377
aI435
aI633
aI971
aI1197
asI603
(lp603
I493
aI511
aI484
aI483
aI487
asI604
(lp604
I136
aI694
aI510
aI275
aI497
asI605
(lp605
I649
aI1506
aI632
aI1405
aI518
asI606
(lp606
I499
aI190
aI701
aI484
aI1449
asI607
(lp607
I525
aI851
aI656
aI303
aI1194
asI608
(lp608
I211
aI262
aI701
aI606
aI432
asI609
(lp609
I945
aI909
aI1121
aI714
aI691
asI610
(lp610
I649
aI632
aI236
aI518
aI382
asI611
(lp611
I615
aI530
aI647
aI59
aI488
asI612
(lp612
I1039
aI57
aI634
aI478
aI1342
asI613
(lp613
I673
aI173
aI157
aI736
aI234
asI614
(lp614
I1516
aI141
aI1189
aI1396
aI1243
asI615
(lp615
I611
aI48
aI59
aI647
aI653
asI616
(lp616
I844
aI1245
aI664
aI175
aI149
asI617
(lp617
I1592
aI1448
aI1656
aI1639
aI1298
asI618
(lp618
I523
aI601
aI191
aI302
aI114
asI619
(lp619
I394
aI27
aI879
aI845
aI1285
asI620
(lp620
I1315
aI167
aI245
aI761
aI738
asI621
(lp621
I1221
aI1278
aI723
aI888
aI1104
asI622
(lp622
I44
aI304
aI1233
aI51
aI924
asI623
(lp623
I812
aI1253
aI341
aI1091
aI932
asI624
(lp624
I347
aI268
aI592
aI1616
aI1533
asI625
(lp625
I1483
aI1
aI588
aI257
aI95
asI626
(lp626
I1468
aI1549
aI1191
aI757
aI973
asI627
(lp627
I1308
aI666
aI102
aI1249
aI1190
asI628
(lp628
I304
aI1112
aI51
aI622
aI1104
asI629
(lp629
I1281
aI1056
aI967
aI1267
aI1166
asI630
(lp630
I550
aI226
aI232
aI385
aI140
asI631
(lp631
I428
aI414
aI212
aI381
aI463
asI632
(lp632
I518
aI1405
aI649
aI361
aI1062
asI633
(lp633
I602
aI435
aI936
aI170
aI1197
asI634
(lp634
I1334
aI1369
aI1359
aI1345
aI1384
asI635
(lp635
I122
aI240
aI412
aI1527
aI1057
asI636
(lp636
I822
aI90
aI250
aI329
aI348
asI637
(lp637
I702
aI679
aI410
aI824
aI53
asI638
(lp638
I964
aI1193
aI1137
aI970
aI789
asI639
(lp639
I1435
aI1462
aI1024
aI1404
aI968
asI640
(lp640
I396
aI1170
aI991
aI1280
aI1411
asI641
(lp641
I1194
aI408
aI490
aI489
aI487
asI642
(lp642
I960
aI1118
aI1098
aI92
aI1245
asI643
(lp643
I1531
aI1588
aI1590
aI1572
aI1574
asI644
(lp644
I661
aI178
aI766
aI185
aI1142
asI645
(lp645
I1111
aI1345
aI1320
aI1325
aI1329
asI646
(lp646
I813
aI956
aI1174
aI1226
aI902
asI647
(lp647
I653
aI59
aI529
aI488
aI615
asI648
(lp648
I136
aI275
aI170
aI657
aI513
asI649
(lp649
I610
aI632
aI1317
aI518
aI605
asI650
(lp650
I995
aI753
aI884
aI1109
aI533
asI651
(lp651
I318
aI526
aI427
aI316
aI98
asI652
(lp652
I896
aI671
aI1371
aI1240
aI61
asI653
(lp653
I647
aI59
aI529
aI537
aI615
asI654
(lp654
I61
aI512
aI1371
aI1240
aI663
asI655
(lp655
I132
aI8
aI216
aI848
aI735
asI656
(lp656
I529
aI303
aI1194
aI489
aI59
asI657
(lp657
I513
aI528
aI648
aI490
aI136
asI658
(lp658
I115
aI431
aI218
aI403
aI109
asI659
(lp659
I316
aI318
aI191
aI169
aI1101
asI660
(lp660
I196
aI486
aI279
aI133
aI1115
asI661
(lp661
I644
aI185
aI178
aI766
aI718
asI662
(lp662
I291
aI402
aI125
aI749
aI553
asI663
(lp663
I504
aI654
aI131
aI61
aI1211
asI664
(lp664
I1176
aI514
aI1240
aI558
aI889
asI665
(lp665
I725
aI1232
aI1305
aI413
aI363
asI666
(lp666
I627
aI1035
aI1308
aI1190
aI1031
asI667
(lp667
I1229
aI145
aI1496
aI569
aI977
asI668
(lp668
I1337
aI1678
aI978
aI1300
aI1257
asI669
(lp669
I688
aI910
aI368
aI1213
aI897
asI670
(lp670
I578
aI804
aI147
aI535
aI712
asI671
(lp671
I175
aI320
aI652
aI81
aI902
asI672
(lp672
I552
aI816
aI790
aI834
aI426
asI673
(lp673
I613
aI173
aI710
aI195
aI172
asI674
(lp674
I696
aI722
aI1315
aI761
aI1680
asI675
(lp675
I598
aI883
aI664
aI149
aI514
asI676
(lp676
I416
aI699
aI660
aI570
aI724
asI677
(lp677
I1603
aI1520
aI1673
aI1675
aI1521
asI678
(lp678
I1228
aI563
aI349
aI930
aI595
asI679
(lp679
I410
aI702
aI637
aI899
aI455
asI680
(lp680
I266
aI1207
aI929
aI1034
aI878
asI681
(lp681
I988
aI1054
aI1407
aI1049
aI877
asI682
(lp682
I895
aI914
aI541
aI294
aI373
asI683
(lp683
I1079
aI878
aI700
aI767
aI1052
asI684
(lp684
I97
aI28
aI22
aI202
aI241
asI685
(lp685
I27
aI393
aI845
aI417
aI749
asI686
(lp686
I1389
aI1269
aI1237
aI746
aI1172
asI687
(lp687
I456
aI1089
aI1420
aI1178
aI890
asI688
(lp688
I1013
aI1164
aI910
aI890
aI669
asI689
(lp689
I472
aI449
aI748
aI785
aI148
asI690
(lp690
I754
aI291
aI749
aI126
aI304
asI691
(lp691
I1173
aI1549
aI421
aI1544
aI945
asI692
(lp692
I73
aI392
aI468
aI781
aI66
asI693
(lp693
I42
aI182
aI340
aI47
aI960
asI694
(lp694
I479
aI604
aI490
aI136
aI887
asI695
(lp695
I1014
aI583
aI1263
aI1208
aI532
asI696
(lp696
I1680
aI722
aI1478
aI846
aI350
asI697
(lp697
I345
aI463
aI950
aI162
aI286
asI698
(lp698
I1656
aI1528
aI1459
aI1448
aI1592
asI699
(lp699
I747
aI549
aI570
aI676
aI799
asI700
(lp700
I358
aI719
aI1052
aI683
aI876
asI701
(lp701
I1331
aI499
aI1347
aI606
aI302
asI702
(lp702
I679
aI410
aI899
aI637
aI329
asI703
(lp703
I1106
aI850
aI935
aI4
aI348
asI704
(lp704
I950
aI330
aI843
aI299
aI818
asI705
(lp705
I170
aI132
aI435
aI133
aI482
asI706
(lp706
I1309
aI29
aI1305
aI804
aI145
asI707
(lp707
I811
aI464
aI6
aI953
aI516
asI708
(lp708
I372
aI381
aI1011
aI311
aI1045
asI709
(lp709
I1147
aI518
aI516
aI610
aI236
asI710
(lp710
I673
aI228
aI210
aI186
aI173
asI711
(lp711
I1123
aI1505
aI1677
aI1681
aI1515
asI712
(lp712
I72
aI147
aI284
aI1465
aI670
asI713
(lp713
I1369
aI1553
aI634
aI1261
aI1350
asI714
(lp714
I1531
aI1382
aI1588
aI1590
aI643
asI715
(lp715
I872
aI1045
aI902
aI475
aI708
asI716
(lp716
I791
aI782
aI898
aI292
aI308
asI717
(lp717
I858
aI563
aI1025
aI777
aI1061
asI718
(lp718
I124
aI48
aI474
aI867
aI185
asI719
(lp719
I358
aI940
aI700
aI1001
aI1052
asI720
(lp720
I984
aI748
aI84
aI1620
aI63
asI721
(lp721
I184
aI288
aI327
aI201
aI780
asI722
(lp722
I764
aI1478
aI696
aI846
aI761
asI723
(lp723
I1221
aI621
aI1278
aI1104
aI785
asI724
(lp724
I162
aI863
aI292
aI744
aI495
asI725
(lp725
I1232
aI665
aI1305
aI363
aI891
asI726
(lp726
I892
aI450
aI826
aI225
aI569
asI727
(lp727
I746
aI626
aI691
aI163
aI1389
asI728
(lp728
I1041
aI692
aI731
aI1044
aI73
asI729
(lp729
I95
aI96
aI1483
aI625
aI270
asI730
(lp730
I1499
aI86
aI481
aI1387
aI361
asI731
(lp731
I796
aI380
aI692
aI77
aI468
asI732
(lp732
I143
aI378
aI392
aI310
aI265
asI733
(lp733
I909
aI1121
aI936
aI1391
aI633
asI734
(lp734
I1270
aI398
aI565
aI1003
aI539
asI735
(lp735
I133
aI279
aI655
aI423
aI194
asI736
(lp736
I467
aI420
aI173
aI50
aI191
asI737
(lp737
I477
aI1093
aI1335
aI460
aI39
asI738
(lp738
I40
aI761
aI21
aI1315
aI167
asI739
(lp739
I121
aI332
aI77
aI393
aI300
asI740
(lp740
I1242
aI1154
aI1503
aI1252
aI1475
asI741
(lp741
I39
aI277
aI874
aI1208
aI477
asI742
(lp742
I1042
aI538
aI845
aI1285
aI1355
asI743
(lp743
I1215
aI1087
aI767
aI683
aI1140
asI744
(lp744
I863
aI733
aI778
aI497
aI633
asI745
(lp745
I1353
aI593
aI1484
aI1359
aI1384
asI746
(lp746
I1389
aI1269
aI727
aI459
aI1172
asI747
(lp747
I549
aI699
aI65
aI799
aI1160
asI748
(lp748
I63
aI148
aI1620
aI720
aI472
asI749
(lp749
I291
aI662
aI402
aI685
aI553
asI750
(lp750
I510
aI213
aI887
aI1286
aI863
asI751
(lp751
I123
aI573
aI1461
aI1453
aI1472
asI752
(lp752
I937
aI2
aI1294
aI562
aI281
asI753
(lp753
I995
aI884
aI650
aI1536
aI1097
asI754
(lp754
I690
aI274
aI291
aI402
aI749
asI755
(lp755
I326
aI1016
aI405
aI118
aI332
asI756
(lp756
I1471
aI1530
aI827
aI996
aI1035
asI757
(lp757
I1360
aI861
aI1549
aI1544
aI1138
asI758
(lp758
I981
aI1165
aI976
aI424
aI931
asI759
(lp759
I901
aI564
aI1213
aI438
aI439
asI760
(lp760
I1256
aI908
aI860
aI1244
aI841
asI761
(lp761
I722
aI764
aI738
aI846
aI674
asI762
(lp762
I298
aI993
aI584
aI1470
aI367
asI763
(lp763
I41
aI833
aI271
aI17
aI790
asI764
(lp764
I722
aI1478
aI846
aI761
aI696
asI765
(lp765
I1206
aI167
aI738
aI21
aI1315
asI766
(lp766
I178
aI185
aI644
aI661
aI154
asI767
(lp767
I1034
aI1140
aI1052
aI878
aI683
asI768
(lp768
I944
aI1046
aI140
aI550
aI562
asI769
(lp769
I1002
aI1033
aI986
aI377
aI112
asI770
(lp770
I428
aI116
aI414
aI883
aI1176
asI771
(lp771
I1478
aI1672
aI807
aI1256
aI912
asI772
(lp772
I1626
aI583
aI708
aI906
aI872
asI773
(lp773
I1199
aI1170
aI1071
aI1048
aI844
asI774
(lp774
I546
aI891
aI355
aI928
aI1135
asI775
(lp775
I1102
aI932
aI1091
aI1036
aI476
asI776
(lp776
I1430
aI1433
aI1601
aI1552
aI1442
asI777
(lp777
I858
aI314
aI930
aI563
aI717
asI778
(lp778
I497
aI1282
aI971
aI744
aI847
asI779
(lp779
I777
aI560
aI1508
aI314
aI1229
asI780
(lp780
I260
aI410
aI249
aI721
aI90
asI781
(lp781
I82
aI418
aI73
aI692
aI468
asI782
(lp782
I898
aI1038
aI791
aI308
aI716
asI783
(lp783
I155
aI454
aI1444
aI540
aI110
asI784
(lp784
I788
aI807
aI1244
aI860
aI323
asI785
(lp785
I278
aI472
aI941
aI399
aI810
asI786
(lp786
I1166
aI354
aI1155
aI1598
aI1056
asI787
(lp787
I1604
aI1674
aI1623
aI1642
aI1526
asI788
(lp788
I784
aI1244
aI807
aI102
aI323
asI789
(lp789
I920
aI1317
aI645
aI1111
aI638
asI790
(lp790
I552
aI820
aI567
aI1135
aI672
asI791
(lp791
I716
aI782
aI292
aI308
aI1038
asI792
(lp792
I1368
aI23
aI1357
aI154
aI1295
asI793
(lp793
I242
aI221
aI1394
aI497
aI964
asI794
(lp794
I313
aI215
aI392
aI310
aI174
asI795
(lp795
I539
aI78
aI398
aI783
aI309
asI796
(lp796
I366
aI1220
aI282
aI468
aI781
asI797
(lp797
I451
aI1192
aI126
aI465
aI304
asI798
(lp798
I1162
aI1177
aI556
aI299
aI997
asI799
(lp799
I549
aI886
aI25
aI843
aI747
asI800
(lp800
I849
aI323
aI1078
aI349
aI342
asI801
(lp801
I1659
aI264
aI145
aI1309
aI565
asI802
(lp802
I309
aI1145
aI38
aI873
aI809
asI803
(lp803
I139
aI542
aI264
aI572
aI565
asI804
(lp804
I670
aI535
aI578
aI562
aI1135
asI805
(lp805
I485
aI87
aI1189
aI1389
aI1172
asI806
(lp806
I811
aI1445
aI464
aI638
aI1338
asI807
(lp807
I784
aI788
aI1244
aI102
aI841
asI808
(lp808
I554
aI546
aI1047
aI1078
aI1152
asI809
(lp809
I38
aI229
aI77
aI417
aI148
asI810
(lp810
I941
aI1091
aI785
aI1133
aI322
asI811
(lp811
I516
aI464
aI1445
aI806
aI707
asI812
(lp812
I1408
aI623
aI1253
aI341
aI1061
asI813
(lp813
I646
aI956
aI1174
aI425
aI81
asI814
(lp814
I1463
aI1130
aI1452
aI1458
aI1144
asI815
(lp815
I597
aI255
aI576
aI1152
aI332
asI816
(lp816
I830
aI907
aI852
aI834
aI820
asI817
(lp817
I80
aI1271
aI1305
aI364
aI706
asI818
(lp818
I330
aI473
aI772
aI1280
aI556
asI819
(lp819
I110
aI984
aI1228
aI720
aI678
asI820
(lp820
I552
aI790
aI1135
aI816
aI907
asI821
(lp821
I1620
aI1157
aI1035
aI999
aI1105
asI822
(lp822
I636
aI992
aI290
aI1055
aI217
asI823
(lp823
I289
aI371
aI898
aI570
aI312
asI824
(lp824
I235
aI1059
aI637
aI53
aI410
asI825
(lp825
I925
aI1622
aI1672
aI846
aI627
asI826
(lp826
I892
aI450
aI726
aI1407
aI40
asI827
(lp827
I370
aI1253
aI1210
aI996
aI1239
asI828
(lp828
I1509
aI341
aI1530
aI1250
aI1289
asI829
(lp829
I560
aI1508
aI779
aI930
aI777
asI830
(lp830
I852
aI907
aI446
aI105
aI816
asI831
(lp831
I1034
aI876
aI1006
aI1052
aI407
asI832
(lp832
I353
aI998
aI1609
aI1554
aI1489
asI833
(lp833
I41
aI763
aI1410
aI567
aI288
asI834
(lp834
I816
aI820
aI672
aI105
aI552
asI835
(lp835
I980
aI1456
aI1392
aI1008
aI1113
asI836
(lp836
I536
aI337
aI745
aI1365
aI107
asI837
(lp837
I166
aI805
aI485
aI87
aI1039
asI838
(lp838
I1403
aI1015
aI335
aI635
aI240
asI839
(lp839
I1023
aI574
aI254
aI442
aI1030
asI840
(lp840
I1276
aI1661
aI1496
aI560
aI1061
asI841
(lp841
I860
aI1276
aI807
aI1244
aI784
asI842
(lp842
I1490
aI938
aI1450
aI420
aI673
asI843
(lp843
I799
aI549
aI886
aI25
aI747
asI844
(lp844
I616
aI149
aI1170
aI175
aI160
asI845
(lp845
I685
aI27
aI394
aI879
aI619
asI846
(lp846
I1478
aI722
aI1672
aI825
aI696
asI847
(lp847
I971
aI165
aI207
aI1282
aI1073
asI848
(lp848
I655
aI8
aI1599
aI216
aI132
asI849
(lp849
I355
aI800
aI907
aI891
aI323
asI850
(lp850
I1643
aI703
aI1124
aI935
aI4
asI851
(lp851
I303
aI589
aI525
aI59
aI793
asI852
(lp852
I830
aI907
aI446
aI1283
aI105
asI853
(lp853
I32
aI1070
aI671
aI175
aI652
asI854
(lp854
I1245
aI960
aI1005
aI1098
aI1118
asI855
(lp855
I1555
aI1462
aI1435
aI968
aI1524
asI856
(lp856
I1021
aI1203
aI488
aI1512
aI543
asI857
(lp857
I1681
aI1538
aI1677
aI987
aI1156
asI858
(lp858
I777
aI717
aI1025
aI563
aI314
asI859
(lp859
I1671
aI1610
aI962
aI1652
aI325
asI860
(lp860
I841
aI784
aI1244
aI760
aI1276
asI861
(lp861
I957
aI1544
aI1375
aI757
aI1592
asI862
(lp862
I388
aI577
aI1209
aI453
aI1489
asI863
(lp863
I744
aI750
aI510
aI604
aI887
asI864
(lp864
I1355
aI1042
aI685
aI339
aI845
asI865
(lp865
I1357
aI1386
aI1026
aI179
aI1085
asI866
(lp866
I118
aI63
aI339
aI1620
aI999
asI867
(lp867
I116
aI519
aI19
aI718
aI48
asI868
(lp868
I1537
aI1463
aI1368
aI1144
aI814
asI869
(lp869
I1311
aI934
aI974
aI155
aI916
asI870
(lp870
I967
aI101
aI1056
aI1528
aI354
asI871
(lp871
I1013
aI890
aI1164
aI456
aI1030
asI872
(lp872
I715
aI1045
aI324
aI334
aI10
asI873
(lp873
I815
aI1152
aI597
aI140
aI802
asI874
(lp874
I1114
aI1511
aI39
aI1658
aI91
asI875
(lp875
I1652
aI325
aI859
aI962
aI1208
asI876
(lp876
I831
aI1006
aI1034
aI767
aI700
asI877
(lp877
I1049
aI1179
aI829
aI1678
aI1661
asI878
(lp878
I336
aI767
aI1034
aI680
aI683
asI879
(lp879
I619
aI394
aI27
aI999
aI845
asI880
(lp880
I74
aI1186
aI1495
aI1463
aI1357
asI881
(lp881
I1110
aI350
aI1598
aI696
aI722
asI882
(lp882
I1097
aI1462
aI1024
aI1109
aI1435
asI883
(lp883
I381
aI1008
aI212
aI372
aI980
asI884
(lp884
I753
aI1524
aI650
aI995
aI1109
asI885
(lp885
I931
aI1087
aI1337
aI1165
aI668
asI886
(lp886
I799
aI25
aI244
aI1265
aI1421
asI887
(lp887
I522
aI694
aI604
aI1286
aI479
asI888
(lp888
I1167
aI1136
aI1324
aI360
aI1474
asI889
(lp889
I1240
aI1176
aI507
aI1506
aI1405
asI890
(lp890
I1013
aI871
aI687
aI1030
aI759
asI891
(lp891
I355
aI1135
aI849
aI725
aI1305
asI892
(lp892
I726
aI826
aI450
aI810
aI941
asI893
(lp893
I1227
aI1489
aI1209
aI1303
aI803
asI894
(lp894
I545
aI247
aI442
aI439
aI555
asI895
(lp895
I541
aI373
aI630
aI682
aI768
asI896
(lp896
I1187
aI652
aI474
aI488
aI647
asI897
(lp897
I688
aI669
aI1164
aI1230
aI910
asI898
(lp898
I782
aI362
aI1038
aI299
aI823
asI899
(lp899
I455
aI17
aI271
aI329
aI702
asI900
(lp900
I1560
aI617
aI1027
aI1379
aI1160
asI901
(lp901
I759
aI438
aI439
aI564
aI555
asI902
(lp902
I81
aI1174
aI475
aI320
aI646
asI903
(lp903
I1585
aI965
aI1553
aI1378
aI1578
asI904
(lp904
I1434
aI1255
aI1380
aI1097
aI1010
asI905
(lp905
I417
aI121
aI255
aI393
aI685
asI906
(lp906
I1299
aI532
aI1065
aI1048
aI1011
asI907
(lp907
I852
aI849
aI355
aI830
aI891
asI908
(lp908
I760
aI1256
aI1241
aI1234
aI1182
asI909
(lp909
I733
aI1121
aI1115
aI1391
aI936
asI910
(lp910
I983
aI1213
aI1183
aI564
aI247
asI911
(lp911
I912
aI1305
aI891
aI1135
aI355
asI912
(lp912
I1672
aI911
aI355
aI535
aI102
asI913
(lp913
I1231
aI426
aI1671
aI446
aI411
asI914
(lp914
I373
aI541
aI29
aI546
aI804
asI915
(lp915
I223
aI1169
aI1293
aI153
aI1264
asI916
(lp916
I974
aI121
aI739
aI309
aI84
asI917
(lp917
I196
aI501
aI660
aI1115
aI1172
asI918
(lp918
I471
aI1409
aI49
aI1612
aI1644
asI919
(lp919
I171
aI1143
aI285
aI154
aI23
asI920
(lp920
I1350
aI1338
aI645
aI1369
aI1404
asI921
(lp921
I922
aI1558
aI46
aI512
aI1148
asI922
(lp922
I921
aI512
aI1070
aI46
aI654
asI923
(lp923
I499
aI1073
aI958
aI297
aI45
asI924
(lp924
I1464
aI1153
aI691
aI1167
aI1549
asI925
(lp925
I1060
aI825
aI1031
aI1552
aI1442
asI926
(lp926
I1047
aI1090
aI595
aI554
aI1139
asI927
(lp927
I490
aI484
aI519
aI513
aI528
asI928
(lp928
I546
aI774
aI1517
aI808
aI1139
asI929
(lp929
I266
aI680
aI1207
aI106
aI1678
asI930
(lp930
I777
aI563
aI1033
aI858
aI1210
asI931
(lp931
I885
aI1165
aI1087
aI1140
aI120
asI932
(lp932
I1091
aI623
aI341
aI1253
aI1102
asI933
(lp933
I1671
aI1610
aI37
aI1337
aI859
asI934
(lp934
I869
aI280
aI1311
aI155
aI720
asI935
(lp935
I4
aI531
aI1122
aI502
aI1326
asI936
(lp936
I1115
aI909
aI633
aI733
aI196
asI937
(lp937
I752
aI2
aI1294
aI1046
aI562
asI938
(lp938
I1490
aI1676
aI1492
aI1498
aI1485
asI939
(lp939
I272
aI99
aI258
aI210
aI216
asI940
(lp940
I719
aI948
aI1059
aI235
aI358
asI941
(lp941
I810
aI1091
aI785
aI472
aI225
asI942
(lp942
I1628
aI1358
aI1200
aI1330
aI1466
asI943
(lp943
I1010
aI1399
aI547
aI1255
aI1424
asI944
(lp944
I768
aI140
aI1540
aI294
aI630
asI945
(lp945
I691
aI1173
aI609
aI746
aI421
asI946
(lp946
I161
aI755
aI916
aI121
aI974
asI947
(lp947
I337
aI1161
aI1069
aI1312
aI1109
asI948
(lp948
I940
aI352
aI719
aI325
aI1059
asI949
(lp949
I404
aI1063
aI1053
aI429
aI420
asI950
(lp950
I704
aI697
aI843
aI582
aI473
asI951
(lp951
I1145
aI579
aI29
aI264
aI34
asI952
(lp952
I1017
aI160
aI844
aI715
aI175
asI953
(lp953
I1067
aI707
aI972
aI464
aI387
asI954
(lp954
I1125
aI1064
aI1541
aI1593
aI1537
asI955
(lp955
I1158
aI1129
aI1523
aI1475
aI1524
asI956
(lp956
I813
aI646
aI1371
aI461
aI512
asI957
(lp957
I861
aI1375
aI1544
aI1551
aI1175
asI958
(lp958
I505
aI1323
aI1073
aI189
aI297
asI959
(lp959
I1334
aI1359
aI1200
aI1384
aI1484
asI960
(lp960
I642
aI1098
aI1118
aI854
aI150
asI961
(lp961
I607
aI525
aI522
aI1009
aI887
asI962
(lp962
I1263
aI859
aI458
aI1208
aI1652
asI963
(lp963
I593
aI1531
aI1391
aI959
aI1260
asI964
(lp964
I638
aI1317
aI1529
aI1062
aI1148
asI965
(lp965
I903
aI1585
aI1298
aI1127
aI1553
asI966
(lp966
I470
aI485
aI459
aI257
aI1269
asI967
(lp967
I1281
aI1528
aI1360
aI1056
aI629
asI968
(lp968
I1350
aI1084
aI1261
aI920
aI1435
asI969
(lp969
I79
aI419
aI28
aI174
aI404
asI970
(lp970
I1137
aI1529
aI638
aI86
aI1317
asI971
(lp971
I847
aI1193
aI165
aI1377
aI207
asI972
(lp972
I387
aI953
aI1067
aI1011
aI1150
asI973
(lp973
I1468
aI626
aI1549
aI757
aI421
asI974
(lp974
I916
aI1311
aI869
aI309
aI739
asI975
(lp975
I928
aI774
aI546
aI338
aI1517
asI976
(lp976
I1215
aI687
aI758
aI1165
aI981
asI977
(lp977
I1025
aI1437
aI314
aI1229
aI777
asI978
(lp978
I1151
aI1132
aI668
aI990
aI989
asI979
(lp979
I1004
aI918
aI1316
aI1422
aI1464
asI980
(lp980
I1008
aI1558
aI835
aI1392
aI1113
asI981
(lp981
I988
aI758
aI377
aI112
aI545
asI982
(lp982
I341
aI1091
aI623
aI812
aI932
asI983
(lp983
I910
aI1183
aI1213
aI564
aI439
asI984
(lp984
I720
aI819
aI84
aI110
aI678
asI985
(lp985
I3
aI1219
aI561
aI1205
aI1610
asI986
(lp986
I1033
aI777
aI1002
aI112
aI563
asI987
(lp987
I1681
aI857
aI1310
aI1677
aI1510
asI988
(lp988
I681
aI981
aI1049
aI1407
aI1412
asI989
(lp989
I1212
aI1313
aI1132
aI351
aI990
asI990
(lp990
I1132
aI1222
aI1212
aI37
aI989
asI991
(lp991
I1094
aI1411
aI396
aI1291
aI640
asI992
(lp992
I573
aI1055
aI822
aI267
aI1453
asI993
(lp993
I762
aI367
aI973
aI298
aI1468
asI994
(lp994
I350
aI1159
aI1598
aI1617
aI1205
asI995
(lp995
I753
aI650
aI884
aI1109
aI1536
asI996
(lp996
I827
aI1471
aI756
aI370
aI1239
asI997
(lp997
I556
aI1162
aI103
aI130
aI396
asI998
(lp998
I412
aI1291
aI1527
aI1094
aI1609
asI999
(lp999
I1620
aI339
aI1285
aI1035
aI472
asI1000
(lp1000
I600
aI1481
aI1662
aI85
aI938
asI1001
(lp1001
I352
aI719
aI940
aI261
aI948
asI1002
(lp1002
I112
aI986
aI1033
aI769
aI1274
asI1003
(lp1003
I1213
aI437
aI438
aI983
aI36
asI1004
(lp1004
I1422
aI1316
aI1307
aI1601
aI1442
asI1005
(lp1005
I1098
aI1499
aI1404
aI639
aI382
asI1006
(lp1006
I831
aI876
aI881
aI379
aI1206
asI1007
(lp1007
I306
aI1068
aI4
aI1342
aI58
asI1008
(lp1008
I980
aI212
aI883
aI1392
aI835
asI1009
(lp1009
I835
aI883
aI463
aI381
aI1008
asI1010
(lp1010
I1399
aI277
aI1255
aI943
aI1459
asI1011
(lp1011
I1150
aI972
aI372
aI1392
aI1299
asI1012
(lp1012
I24
aI547
aI201
aI150
aI128
asI1013
(lp1013
I890
aI871
aI688
aI1164
aI687
asI1014
(lp1014
I1208
aI695
aI277
aI962
aI904
asI1015
(lp1015
I108
aI42
aI47
aI693
aI340
asI1016
(lp1016
I326
aI281
aI405
aI755
aI62
asI1017
(lp1017
I952
aI160
aI844
aI175
aI340
asI1018
(lp1018
I1585
aI1127
aI1553
aI903
aI965
asI1019
(lp1019
I836
aI1282
aI536
aI745
aI713
asI1020
(lp1020
I408
aI603
aI479
aI511
aI427
asI1021
(lp1021
I1203
aI856
aI1512
aI529
aI656
asI1022
(lp1022
I1071
aI1118
aI642
aI854
aI1199
asI1023
(lp1023
I839
aI442
aI574
aI555
aI35
asI1024
(lp1024
I533
aI1109
aI882
aI639
aI1435
asI1025
(lp1025
I1437
aI977
aI717
aI858
aI314
asI1026
(lp1026
I1357
aI792
aI135
aI1295
aI865
asI1027
(lp1027
I1488
aI1560
aI1191
aI1379
aI1268
asI1028
(lp1028
I1031
aI1247
aI666
aI1530
aI1471
asI1029
(lp1029
I1089
aI1300
aI668
aI1420
aI1257
asI1030
(lp1030
I839
aI105
aI254
aI1229
aI977
asI1031
(lp1031
I1383
aI627
aI666
aI1035
aI925
asI1032
(lp1032
I926
aI1152
aI821
aI808
aI554
asI1033
(lp1033
I986
aI930
aI1210
aI777
aI112
asI1034
(lp1034
I767
aI831
aI1052
aI876
aI878
asI1035
(lp1035
I666
aI1190
aI1285
aI1031
aI999
asI1036
(lp1036
I1102
aI1509
aI932
aI775
aI623
asI1037
(lp1037
I1209
aI453
aI1227
aI734
aI862
asI1038
(lp1038
I308
aI898
aI1284
aI782
aI362
asI1039
(lp1039
I57
aI478
aI612
aI1451
aI58
asI1040
(lp1040
I1239
aI1509
aI1415
aI1049
aI1412
asI1041
(lp1041
I73
aI728
aI692
aI66
aI781
asI1042
(lp1042
I1285
aI1439
aI1035
aI999
aI742
asI1043
(lp1043
I1454
aI1380
aI1523
aI533
aI1434
asI1044
(lp1044
I356
aI69
aI692
aI204
aI392
asI1045
(lp1045
I902
aI715
aI558
aI507
aI872
asI1046
(lp1046
I937
aI562
aI2
aI233
aI752
asI1047
(lp1047
I554
aI926
aI349
aI1139
aI808
asI1048
(lp1048
I532
aI583
aI1071
aI773
aI906
asI1049
(lp1049
I1412
aI988
aI1179
aI1239
aI1040
asI1050
(lp1050
I1262
aI107
aI945
aI1365
aI1425
asI1051
(lp1051
I1439
aI756
aI888
aI828
aI1474
asI1052
(lp1052
I407
aI1034
aI831
aI767
aI1079
asI1053
(lp1053
I794
aI313
aI73
aI392
aI1041
asI1054
(lp1054
I681
aI988
aI758
aI885
aI104
asI1055
(lp1055
I296
aI267
aI403
aI992
aI431
asI1056
(lp1056
I1166
aI629
aI967
aI1281
aI1598
asI1057
(lp1057
I412
aI991
aI1094
aI122
aI1291
asI1058
(lp1058
I421
aI1549
aI1318
aI924
aI1464
asI1059
(lp1059
I325
aI824
aI1652
aI940
aI235
asI1060
(lp1060
I925
aI1031
aI1035
aI666
aI409
asI1061
(lp1061
I1157
aI717
aI1105
aI930
aI858
asI1062
(lp1062
I361
aI1211
aI52
aI964
aI632
asI1063
(lp1063
I1473
aI949
aI193
aI404
aI491
asI1064
(lp1064
I1125
aI954
aI1467
aI445
aI1497
asI1065
(lp1065
I533
aI1245
aI1024
aI532
aI884
asI1066
(lp1066
I1501
aI1426
aI1081
aI1522
aI1171
asI1067
(lp1067
I953
aI811
aI466
aI707
aI464
asI1068
(lp1068
I189
aI119
aI1323
aI1372
aI297
asI1069
(lp1069
I1161
aI1591
aI359
aI1324
aI1322
asI1070
(lp1070
I922
aI921
aI512
aI853
aI1371
asI1071
(lp1071
I1022
aI1199
aI1048
aI773
aI532
asI1072
(lp1072
I578
aI1275
aI535
aI912
aI1622
asI1073
(lp1073
I1137
aI589
aI958
aI923
aI505
asI1074
(lp1074
I301
aI1465
aI231
aI72
aI670
asI1075
(lp1075
I1153
aI1104
aI1100
aI1267
aI1166
asI1076
(lp1076
I35
aI442
aI585
aI439
aI555
asI1077
(lp1077
I1376
aI74
aI390
aI880
aI1495
asI1078
(lp1078
I349
aI1446
aI554
aI808
aI34
asI1079
(lp1079
I1052
aI683
aI407
aI878
aI1034
asI1080
(lp1080
I1385
aI1216
aI1629
aI1398
aI1593
asI1081
(lp1081
I1171
aI1522
aI1324
aI1426
aI1168
asI1082
(lp1082
I1416
aI817
aI1164
aI1618
aI383
asI1083
(lp1083
I1654
aI1608
aI571
aI938
aI1676
asI1084
(lp1084
I968
aI1573
aI1261
aI337
aI1330
asI1085
(lp1085
I1026
aI137
aI344
aI1357
aI865
asI1086
(lp1086
I1324
aI1296
aI1474
aI1136
aI1100
asI1087
(lp1087
I885
aI1165
aI1215
aI931
aI743
asI1088
(lp1088
I571
aI388
aI1314
aI1608
aI397
asI1089
(lp1089
I1029
aI1300
aI560
aI929
aI1179
asI1090
(lp1090
I926
aI1139
aI1025
aI563
aI406
asI1091
(lp1091
I932
aI623
aI322
aI409
aI1102
asI1092
(lp1092
I1419
aI590
aI383
aI36
aI1618
asI1093
(lp1093
I737
aI458
aI53
aI1335
aI477
asI1094
(lp1094
I991
aI1291
aI103
aI1057
aI997
asI1095
(lp1095
I1049
aI1257
aI1040
aI594
aI1412
asI1096
(lp1096
I1665
aI1666
aI1663
aI1417
aI1669
asI1097
(lp1097
I882
aI1099
aI1322
aI1109
aI1024
asI1098
(lp1098
I150
aI1005
aI1118
aI305
aI642
asI1099
(lp1099
I1161
aI1393
aI359
aI1171
aI1322
asI1100
(lp1100
I1422
aI1601
aI1248
aI1138
aI1464
asI1101
(lp1101
I223
aI302
aI515
aI198
aI1347
asI1102
(lp1102
I775
aI1091
aI932
aI1036
aI810
asI1103
(lp1103
I1361
aI1449
aI1514
aI285
aI89
asI1104
(lp1104
I1153
aI1075
aI924
aI1167
aI1100
asI1105
(lp1105
I1157
aI1308
aI1622
aI342
aI1061
asI1106
(lp1106
I703
aI1658
aI1417
aI850
aI935
asI1107
(lp1107
I1644
aI1612
aI557
aI918
aI49
asI1108
(lp1108
I1266
aI146
aI1536
aI1195
aI1252
asI1109
(lp1109
I1024
aI882
aI533
aI650
aI1298
asI1110
(lp1110
I881
aI1615
aI1267
aI994
aI696
asI1111
(lp1111
I645
aI1320
aI1325
aI1329
aI1339
asI1112
(lp1112
I628
aI304
aI1596
aI1595
aI51
asI1113
(lp1113
I1456
aI221
aI1394
aI242
aI793
asI1114
(lp1114
I874
aI39
aI334
aI91
aI1511
asI1115
(lp1115
I501
aI936
aI909
aI196
aI633
asI1116
(lp1116
I1519
aI1643
aI1124
aI129
aI850
asI1117
(lp1117
I1607
aI1528
aI1656
aI1423
aI861
asI1118
(lp1118
I1098
aI382
aI642
aI1005
aI1245
asI1119
(lp1119
I805
aI1189
aI257
aI686
aI129
asI1120
(lp1120
I1617
aI1432
aI1224
aI1430
aI1225
asI1121
(lp1121
I909
aI1391
aI733
aI963
aI1531
asI1122
(lp1122
I935
aI531
aI587
aI4
aI1623
asI1123
(lp1123
I711
aI1623
aI1674
aI587
aI1505
asI1124
(lp1124
I1643
aI1251
aI1358
aI850
aI1302
asI1125
(lp1125
I954
aI127
aI1064
aI317
aI1204
asI1126
(lp1126
I1597
aI1085
aI1026
aI1386
aI865
asI1127
(lp1127
I965
aI1018
aI1585
aI1298
aI903
asI1128
(lp1128
I1411
aI640
aI335
aI1376
aI865
asI1129
(lp1129
I1259
aI921
aI256
aI1158
aI1148
asI1130
(lp1130
I1452
aI1458
aI1664
aI1602
aI1463
asI1131
(lp1131
I1238
aI1327
aI507
aI1514
aI461
asI1132
(lp1132
I990
aI37
aI989
aI1212
aI978
asI1133
(lp1133
I810
aI106
aI764
aI941
aI722
asI1134
(lp1134
I805
aI485
aI1119
aI470
aI257
asI1135
(lp1135
I891
aI1305
aI725
aI343
aI911
asI1136
(lp1136
I1474
aI888
aI1552
aI1167
aI1086
asI1137
(lp1137
I970
aI1073
aI638
aI589
aI86
asI1138
(lp1138
I1318
aI1248
aI1100
aI1351
aI1423
asI1139
(lp1139
I1047
aI926
aI1090
aI323
aI554
asI1140
(lp1140
I767
aI1052
aI931
aI1034
aI1215
asI1141
(lp1141
I1500
aI1463
aI868
aI1485
aI814
asI1142
(lp1142
I644
aI661
aI178
aI766
aI1187
asI1143
(lp1143
I919
aI285
aI171
aI23
aI127
asI1144
(lp1144
I1537
aI1541
aI1593
aI1398
aI1602
asI1145
(lp1145
I951
aI802
aI579
aI1446
aI309
asI1146
(lp1146
I598
aI675
aI1512
aI149
aI1287
asI1147
(lp1147
I709
aI236
aI516
aI432
aI253
asI1148
(lp1148
I1529
aI970
aI964
aI1558
aI1317
asI1149
(lp1149
I530
aI89
aI1103
aI134
aI1449
asI1150
(lp1150
I372
aI381
aI1011
aI1299
aI1392
asI1151
(lp1151
I1494
aI1493
aI978
aI1501
aI1486
asI1152
(lp1152
I597
aI815
aI118
aI1032
aI808
asI1153
(lp1153
I1104
aI1075
aI924
aI1324
aI1086
asI1154
(lp1154
I1242
aI1108
aI1252
aI740
aI1266
asI1155
(lp1155
I284
aI1476
aI786
aI354
aI49
asI1156
(lp1156
I1682
aI1677
aI1611
aI1538
aI1657
asI1157
(lp1157
I1061
aI1105
aI930
aI365
aI821
asI1158
(lp1158
I1395
aI1524
aI256
aI1558
aI1529
asI1159
(lp1159
I1168
aI994
aI1296
aI1617
aI1430
asI1160
(lp1160
I900
aI617
aI1281
aI1267
aI629
asI1161
(lp1161
I359
aI1099
aI1069
aI1322
aI1591
asI1162
(lp1162
I798
aI997
aI556
aI103
aI743
asI1163
(lp1163
I1241
aI1256
aI1478
aI1212
aI350
asI1164
(lp1164
I1013
aI688
aI383
aI871
aI890
asI1165
(lp1165
I1087
aI1215
aI931
aI758
aI976
asI1166
(lp1166
I786
aI1267
aI1056
aI1075
aI1421
asI1167
(lp1167
I500
aI888
aI1136
aI1464
aI924
asI1168
(lp1168
I1159
aI1081
aI1086
aI1426
aI1617
asI1169
(lp1169
I1293
aI915
aI1264
aI1201
aI234
asI1170
(lp1170
I844
aI773
aI149
aI616
aI952
asI1171
(lp1171
I1081
aI1099
aI1522
aI1161
aI1393
asI1172
(lp1172
I459
aI1389
aI746
aI1189
aI1269
asI1173
(lp1173
I691
aI1544
aI1549
aI1175
aI1346
asI1174
(lp1174
I81
aI320
aI646
aI902
aI813
asI1175
(lp1175
I1375
aI1544
aI957
aI1591
aI861
asI1176
(lp1176
I469
aI664
aI1240
aI311
aI889
asI1177
(lp1177
I1207
aI680
aI362
aI798
aI299
asI1178
(lp1178
I456
aI369
aI1229
aI667
aI1496
asI1179
(lp1179
I1246
aI112
aI1412
aI1300
aI406
asI1180
(lp1180
I756
aI996
aI827
aI1311
aI370
asI1181
(lp1181
I1413
aI575
aI158
aI395
aI682
asI1182
(lp1182
I1534
aI1297
aI1256
aI908
aI860
asI1183
(lp1183
I564
aI247
aI439
aI1213
aI545
asI1184
(lp1184
I875
aI913
aI426
aI1652
aI325
asI1185
(lp1185
I243
aI769
aI1076
aI377
aI110
asI1186
(lp1186
I1452
aI1458
aI1463
aI1130
aI814
asI1187
(lp1187
I896
aI171
aI488
aI137
aI474
asI1188
(lp1188
I259
aI567
aI559
aI670
aI384
asI1189
(lp1189
I1251
aI1302
aI1516
aI1396
aI129
asI1190
(lp1190
I627
aI1285
aI666
aI1035
aI1249
asI1191
(lp1191
I163
aI1488
aI1468
aI1027
aI1328
asI1192
(lp1192
I126
aI797
aI685
aI51
aI588
asI1193
(lp1193
I1111
aI1338
aI638
aI645
aI432
asI1194
(lp1194
I641
aI408
aI656
aI489
aI611
asI1195
(lp1195
I1266
aI1252
aI1322
aI1365
aI1099
asI1196
(lp1196
I244
aI25
aI1328
aI591
aI1421
asI1197
(lp1197
I478
aI971
aI602
aI57
aI633
asI1198
(lp1198
I1578
aI1571
aI1570
aI1572
aI1569
asI1199
(lp1199
I773
aI1071
aI18
aI1022
aI1272
asI1200
(lp1200
I1384
aI1359
aI1261
aI1330
aI1334
asI1201
(lp1201
I1600
aI1169
aI445
aI234
aI1293
asI1202
(lp1202
I601
aI302
aI190
aI89
aI151
asI1203
(lp1203
I1021
aI529
aI856
aI1512
aI303
asI1204
(lp1204
I127
aI1125
aI192
aI954
aI187
asI1205
(lp1205
I561
aI1479
aI1430
aI1275
aI994
asI1206
(lp1206
I765
aI336
aI738
aI1006
aI21
asI1207
(lp1207
I1177
aI680
aI929
aI668
aI266
asI1208
(lp1208
I1014
aI695
aI277
aI962
aI859
asI1209
(lp1209
I453
aI1037
aI539
aI734
aI862
asI1210
(lp1210
I1253
aI370
aI930
aI563
aI1033
asI1211
(lp1211
I1062
aI52
aI361
aI518
aI632
asI1212
(lp1212
I989
aI1617
aI1313
aI990
aI1163
asI1213
(lp1213
I438
aI564
aI439
aI1183
aI437
asI1214
(lp1214
I440
aI375
aI1230
aI457
aI424
asI1215
(lp1215
I1165
aI976
aI743
aI1087
aI1140
asI1216
(lp1216
I1080
aI1385
aI1629
aI1295
aI183
asI1217
(lp1217
I1444
aI328
aI227
aI809
aI38
asI1218
(lp1218
I1651
aI1650
aI1645
aI1482
aI1603
asI1219
(lp1219
I3
aI985
aI411
aI1275
aI343
asI1220
(lp1220
I366
aI282
aI796
aI596
aI140
asI1221
(lp1221
I621
aI723
aI1278
aI1104
aI1136
asI1222
(lp1222
I1256
aI1241
aI990
aI1163
aI1224
asI1223
(lp1223
I1526
aI1623
aI1674
aI1505
aI1293
asI1224
(lp1224
I1432
aI776
aI1430
aI1617
aI1433
asI1225
(lp1225
I1120
aI1222
aI1163
aI990
aI37
asI1226
(lp1226
I646
aI503
aI956
aI1174
aI1388
asI1227
(lp1227
I893
aI1037
aI1489
aI1292
aI1209
asI1228
(lp1228
I678
aI819
aI349
aI34
aI554
asI1229
(lp1229
I314
aI779
aI1508
aI667
aI977
asI1230
(lp1230
I375
aI1165
aI1215
aI897
aI424
asI1231
(lp1231
I913
aI426
aI907
aI446
aI852
asI1232
(lp1232
I725
aI665
aI1305
aI363
aI891
asI1233
(lp1233
I44
aI622
aI1400
aI945
aI495
asI1234
(lp1234
I1241
aI37
aI908
aI1256
aI1163
asI1235
(lp1235
I1675
aI1614
aI1670
aI1668
aI1667
asI1236
(lp1236
I1646
aI1647
aI1649
aI1641
aI1640
asI1237
(lp1237
I367
aI163
aI1191
aI1389
aI1302
asI1238
(lp1238
I1361
aI1449
aI151
aI1327
aI1131
asI1239
(lp1239
I1412
aI1040
aI827
aI1002
aI1033
asI1240
(lp1240
I507
aI654
aI469
aI512
aI1371
asI1241
(lp1241
I1256
aI1163
aI1234
aI908
aI1222
asI1242
(lp1242
I1252
aI1425
aI1475
aI1195
aI836
asI1243
(lp1243
I1516
aI1381
aI1396
aI587
aI129
asI1244
(lp1244
I788
aI784
aI807
aI1297
aI1256
asI1245
(lp1245
I616
aI1005
aI1405
aI1065
aI642
asI1246
(lp1246
I1179
aI406
aI1412
aI858
aI1300
asI1247
(lp1247
I1530
aI1471
aI1408
aI1028
aI1250
asI1248
(lp1248
I1296
aI1601
aI1100
aI1423
aI1138
asI1249
(lp1249
I1307
aI627
aI1442
aI102
aI1622
asI1250
(lp1250
I1415
aI1289
aI828
aI1530
aI1509
asI1251
(lp1251
I1302
aI1124
aI1189
aI1358
aI58
asI1252
(lp1252
I1242
aI1195
aI1425
aI1266
aI1438
asI1253
(lp1253
I1210
aI1408
aI623
aI812
aI341
asI1254
(lp1254
I1502
aI599
aI1621
aI1554
aI1314
asI1255
(lp1255
I904
aI1010
aI1434
aI277
aI1099
asI1256
(lp1256
I1241
aI760
aI908
aI1244
aI1222
asI1257
(lp1257
I1337
aI668
aI406
aI1029
aI1534
asI1258
(lp1258
I572
aI1413
aI231
aI259
aI80
asI1259
(lp1259
I1129
aI1148
aI921
aI46
aI256
asI1260
(lp1260
I1382
aI714
aI1346
aI1531
aI643
asI1261
(lp1261
I1200
aI1384
aI1359
aI1334
aI1306
asI1262
(lp1262
I1050
aI107
aI1365
aI836
aI745
asI1263
(lp1263
I962
aI1335
aI695
aI859
aI458
asI1264
(lp1264
I1169
aI915
aI1293
aI1123
aI153
asI1265
(lp1265
I244
aI217
aI1354
aI712
aI72
asI1266
(lp1266
I1195
aI1108
aI1536
aI1252
aI1522
asI1267
(lp1267
I1166
aI1075
aI629
aI1056
aI1168
asI1268
(lp1268
I436
aI1488
aI1027
aI1288
aI1589
asI1269
(lp1269
I746
aI1389
aI257
aI459
aI470
asI1270
(lp1270
I734
aI398
aI1659
aI565
aI1003
asI1271
(lp1271
I364
aI80
aI441
aI1206
aI765
asI1272
(lp1272
I906
aI1199
aI18
aI1539
aI773
asI1273
(lp1273
I158
aI1145
aI539
aI542
aI802
asI1274
(lp1274
I138
aI112
aI1002
aI377
aI777
asI1275
(lp1275
I354
aI561
aI1205
aI1072
aI1517
asI1276
(lp1276
I841
aI860
aI1025
aI560
aI858
asI1277
(lp1277
I534
aI957
aI359
aI861
aI1322
asI1278
(lp1278
I621
aI1221
aI723
aI1104
aI888
asI1279
(lp1279
I1133
aI1427
aI43
aI1225
aI399
asI1280
(lp1280
I396
aI818
aI444
aI1170
aI772
asI1281
(lp1281
I967
aI1360
aI629
aI1056
aI1328
asI1282
(lp1282
I970
aI847
aI1073
aI971
aI1369
asI1283
(lp1283
I369
aI456
aI1496
aI852
aI446
asI1284
(lp1284
I1522
aI1081
aI1426
aI1615
aI1401
asI1285
(lp1285
I1190
aI1042
aI1035
aI999
aI339
asI1286
(lp1286
I479
aI887
aI750
aI694
aI528
asI1287
(lp1287
I1336
aI1146
aI640
aI130
aI263
asI1288
(lp1288
I1628
aI942
aI1268
aI436
aI1326
asI1289
(lp1289
I1487
aI1250
aI1494
aI1493
aI828
asI1290
(lp1290
I782
aI791
aI1038
aI308
aI146
asI1291
(lp1291
I1094
aI412
aI1001
aI261
aI991
asI1292
(lp1292
I1227
aI1037
aI457
aI893
aI1489
asI1293
(lp1293
I1169
aI915
aI1223
aI434
aI1321
asI1294
(lp1294
I937
aI5
aI752
aI596
aI1518
asI1295
(lp1295
I154
aI14
aI1385
aI9
aI100
asI1296
(lp1296
I1248
aI1423
aI1086
aI1430
aI1433
asI1297
(lp1297
I1244
aI788
aI784
aI1182
aI807
asI1298
(lp1298
I965
aI1127
aI617
aI903
aI1639
asI1299
(lp1299
I1150
aI906
aI1523
aI835
aI1454
asI1300
(lp1300
I1678
aI1179
aI1246
aI1276
aI560
asI1301
(lp1301
I1613
aI1
aI431
aI1396
aI1542
asI1302
(lp1302
I1251
aI1189
aI963
aI959
aI1237
asI1303
(lp1303
I1489
aI388
aI586
aI862
aI893
asI1304
(lp1304
I1491
aI1621
aI599
aI1495
aI1485
asI1305
(lp1305
I725
aI911
aI1232
aI891
aI355
asI1306
(lp1306
I1484
aI1546
aI1548
aI1573
aI1557
asI1307
(lp1307
I1442
aI1004
aI1249
aI1601
aI776
asI1308
(lp1308
I627
aI1383
aI102
aI1622
aI342
asI1309
(lp1309
I29
aI1659
aI565
aI951
aI706
asI1310
(lp1310
I1611
aI1677
aI1156
aI1681
aI1682
asI1311
(lp1311
I869
aI974
aI934
aI84
aI819
asI1312
(lp1312
I1535
aI1462
aI1353
aI1556
aI1573
asI1313
(lp1313
I989
aI1212
aI1426
aI351
aI1615
asI1314
(lp1314
I1554
aI1608
aI397
aI1088
aI571
asI1315
(lp1315
I620
aI738
aI674
aI761
aI40
asI1316
(lp1316
I1004
aI1422
aI1601
aI1307
aI557
asI1317
(lp1317
I86
aI1529
aI964
aI1558
aI789
asI1318
(lp1318
I1464
aI1138
aI1605
aI1549
aI557
asI1319
(lp1319
I1402
aI1177
aI798
aI1038
aI898
asI1320
(lp1320
I1325
aI1329
aI1339
aI1340
aI1341
asI1321
(lp1321
I1388
aI434
aI1293
aI151
aI503
asI1322
(lp1322
I1365
aI359
aI1161
aI1099
aI1195
asI1323
(lp1323
I119
aI189
aI297
aI481
aI1111
asI1324
(lp1324
I1086
aI360
aI1429
aI1081
aI888
asI1325
(lp1325
I1329
aI1320
aI1339
aI1340
aI1341
asI1326
(lp1326
I531
aI1628
aI436
aI935
aI1466
asI1327
(lp1327
I1361
aI1238
aI1449
aI1131
aI1333
asI1328
(lp1328
I1191
aI163
aI1488
aI1027
aI1281
asI1329
(lp1329
I1325
aI1320
aI1339
aI1340
aI1341
asI1330
(lp1330
I1200
aI1306
aI1573
aI1384
aI1261
asI1331
(lp1331
I701
aI151
aI499
aI434
aI168
asI1332
(lp1332
I1390
aI1372
aI1387
aI1374
aI1373
asI1333
(lp1333
I1327
aI1238
aI100
aI1428
aI1449
asI1334
(lp1334
I1359
aI1384
aI1200
aI1261
aI593
asI1335
(lp1335
I477
aI1263
aI737
aI460
aI1093
asI1336
(lp1336
I1287
aI1411
aI1128
aI263
aI1376
asI1337
(lp1337
I668
aI1257
aI978
aI1132
aI885
asI1338
(lp1338
I920
aI1345
aI1369
aI645
aI1261
asI1339
(lp1339
I1340
aI1341
aI1343
aI1348
aI1349
asI1340
(lp1340
I1339
aI1341
aI1343
aI1348
aI1349
asI1341
(lp1341
I1340
aI1343
aI1339
aI1348
aI1349
asI1342
(lp1342
I1356
aI1339
aI1340
aI1341
aI1343
asI1343
(lp1343
I1341
aI1340
aI1339
aI1348
aI1349
asI1344
(lp1344
I190
aI302
aI606
aI1202
aI523
asI1345
(lp1345
I1320
aI1369
aI1325
aI1329
aI645
asI1346
(lp1346
I1382
aI1544
aI1260
aI1375
aI1551
asI1347
(lp1347
I515
aI701
aI1372
aI297
aI223
asI1348
(lp1348
I1349
aI1352
aI1343
aI1341
aI1340
asI1349
(lp1349
I1348
aI1352
aI1343
aI1341
aI1340
asI1350
(lp1350
I920
aI968
aI1404
aI1261
aI1338
asI1351
(lp1351
I1423
aI861
aI1429
aI1138
aI757
asI1352
(lp1352
I1349
aI1348
aI1343
aI1341
aI1340
asI1353
(lp1353
I1535
aI1556
aI1312
aI1306
aI1573
asI1354
(lp1354
I1328
aI436
aI1268
aI1281
aI1488
asI1355
(lp1355
I538
aI918
aI1464
aI1318
aI979
asI1356
(lp1356
I1342
aI1339
aI1340
aI1341
aI1343
asI1357
(lp1357
I1026
aI792
aI865
aI209
aI1295
asI1358
(lp1358
I942
aI1345
aI1251
aI1329
aI1320
asI1359
(lp1359
I1334
aI1384
aI1200
aI1261
aI1484
asI1360
(lp1360
I757
aI1281
aI1138
aI861
aI626
asI1361
(lp1361
I1449
aI1327
aI1514
aI1238
aI1103
asI1362
(lp1362
I1352
aI1349
aI1363
aI1348
aI1364
asI1363
(lp1363
I1364
aI1366
aI1373
aI1374
aI1352
asI1364
(lp1364
I1363
aI1366
aI1373
aI1374
aI1352
asI1365
(lp1365
I1322
aI1353
aI337
aI1535
aI1312
asI1366
(lp1366
I1364
aI1363
aI1373
aI1374
aI1370
asI1367
(lp1367
I1331
aI151
aI461
aI434
aI1238
asI1368
(lp1368
I792
aI1537
aI23
aI868
aI154
asI1369
(lp1369
I1345
aI1338
aI634
aI920
aI1320
asI1370
(lp1370
I1363
aI1364
aI1366
aI1352
aI1362
asI1371
(lp1371
I512
aI654
aI1240
aI956
aI61
asI1372
(lp1372
I119
aI1390
aI1332
aI1374
aI1373
asI1373
(lp1373
I1374
aI1366
aI1364
aI1363
aI1370
asI1374
(lp1374
I1373
aI1366
aI1364
aI1363
aI1370
asI1375
(lp1375
I1175
aI957
aI861
aI1544
aI1346
asI1376
(lp1376
I1077
aI74
aI880
aI1128
aI865
asI1377
(lp1377
I602
aI6
aI516
aI971
aI811
asI1378
(lp1378
I1424
aI903
aI1553
aI1462
aI1535
asI1379
(lp1379
I1590
aI1588
aI1587
aI1586
aI1584
asI1380
(lp1380
I1434
aI904
aI1043
aI1536
aI1097
asI1381
(lp1381
I587
aI1243
aI1123
aI711
aI99
asI1382
(lp1382
I1346
aI1260
aI1551
aI714
aI1590
asI1383
(lp1383
I1308
aI1031
aI627
aI1249
aI666
asI1384
(lp1384
I1359
aI1334
aI1200
aI1261
aI1484
asI1385
(lp1385
I1080
aI1629
aI1216
aI1295
aI183
asI1386
(lp1386
I865
aI1026
aI1368
aI1357
aI792
asI1387
(lp1387
I1332
aI1373
aI1374
aI1362
aI1366
asI1388
(lp1388
I1321
aI434
aI151
aI200
aI503
asI1389
(lp1389
I746
aI1269
aI1172
aI686
aI1237
asI1390
(lp1390
I1372
aI1374
aI1373
aI1332
aI1366
asI1391
(lp1391
I1330
aI1200
aI1384
aI1531
aI963
asI1392
(lp1392
I1150
aI1008
aI980
aI1456
aI835
asI1393
(lp1393
I1099
aI1161
aI1171
aI359
aI1081
asI1394
(lp1394
I221
aI242
aI793
aI1113
aI1456
asI1395
(lp1395
I1524
aI256
aI1158
aI1555
aI855
asI1396
(lp1396
I1516
aI1189
aI141
aI1243
aI1251
asI1397
(lp1397
I1141
aI390
aI1500
aI1304
aI1126
asI1398
(lp1398
I1593
aI1541
aI1602
aI1144
aI1418
asI1399
(lp1399
I1010
aI943
aI277
aI698
aI1378
asI1400
(lp1400
I500
aI1167
aI1441
aI924
aI1058
asI1401
(lp1401
I1284
aI1434
aI1380
aI995
aI1171
asI1402
(lp1402
I146
aI1108
aI1319
aI1272
aI1536
asI1403
(lp1403
I1218
aI838
aI1521
aI1645
aI1650
asI1404
(lp1404
I1350
aI920
aI639
aI645
aI481
asI1405
(lp1405
I632
aI518
aI1506
aI1558
aI1317
asI1406
(lp1406
I141
aI1679
aI1504
aI1655
aI1122
asI1407
(lp1407
I988
aI681
aI1089
aI377
aI877
asI1408
(lp1408
I1253
aI1530
aI812
aI1247
aI1210
asI1409
(lp1409
I918
aI49
aI538
aI979
aI1595
asI1410
(lp1410
I1046
aI233
aI562
aI2
aI567
asI1411
(lp1411
I991
aI1128
aI1527
aI640
aI396
asI1412
(lp1412
I1179
aI1049
aI1246
aI406
aI1239
asI1413
(lp1413
I1258
aI29
aI259
aI1309
aI158
asI1414
(lp1414
I1606
aI1455
aI1453
aI1461
aI217
asI1415
(lp1415
I1250
aI406
aI1412
aI1289
aI1471
asI1416
(lp1416
I1082
aI817
aI1550
aI352
aI1618
asI1417
(lp1417
I1665
aI1666
aI1669
aI1663
aI1642
asI1418
(lp1418
I1602
aI1497
aI1482
aI1616
aI1398
asI1419
(lp1419
I1092
aI383
aI1013
aI590
aI1079
asI1420
(lp1420
I138
aI314
aI1229
aI1276
aI1025
asI1421
(lp1421
I557
aI1612
aI1166
aI1360
aI1107
asI1422
(lp1422
I1601
aI1004
aI1100
aI1433
aI1442
asI1423
(lp1423
I1351
aI1296
aI1248
aI1429
aI1138
asI1424
(lp1424
I1378
aI1535
aI1462
aI1312
aI1553
asI1425
(lp1425
I1252
aI534
aI1195
aI1242
aI1322
asI1426
(lp1426
I1474
aI1081
aI1168
aI1313
aI1615
asI1427
(lp1427
I1133
aI810
aI351
aI312
aI1279
asI1428
(lp1428
I1333
aI93
aI1327
aI154
aI1131
asI1429
(lp1429
I360
aI1423
aI1351
aI1324
aI1086
asI1430
(lp1430
I1433
aI776
aI1601
aI1432
aI1552
asI1431
(lp1431
I111
aI1443
aI471
aI421
aI596
asI1432
(lp1432
I1617
aI1433
aI1430
aI1552
aI1224
asI1433
(lp1433
I1430
aI1552
aI776
aI1601
aI1432
asI1434
(lp1434
I904
aI1380
aI1255
aI1097
aI1099
asI1435
(lp1435
I1462
aI639
aI1555
aI1312
aI855
asI1436
(lp1436
I1648
aI1634
aI1510
aI1613
aI1504
asI1437
(lp1437
I1025
aI977
aI717
aI323
aI858
asI1438
(lp1438
I1324
aI1195
aI360
aI1066
aI1252
asI1439
(lp1439
I1441
aI1042
aI1031
aI776
aI1552
asI1440
(lp1440
I331
aI1519
aI1237
aI367
aI287
asI1441
(lp1441
I1439
aI1042
aI1469
aI500
aI1167
asI1442
(lp1442
I1307
aI1004
aI776
aI1601
aI1422
asI1443
(lp1443
I31
aI111
aI1431
aI471
aI71
asI1444
(lp1444
I1217
aI783
aI155
aI328
aI809
asI1445
(lp1445
I811
aI1338
aI1084
aI806
aI968
asI1446
(lp1446
I1078
aI579
aI34
aI597
aI349
asI1447
(lp1447
I1457
aI1460
aI1657
aI1627
aI1682
asI1448
(lp1448
I1656
aI1639
aI617
aI1592
aI1298
asI1449
(lp1449
I1361
aI1238
aI1103
aI606
aI1327
asI1450
(lp1450
I1664
aI1482
aI420
aI1235
aI1418
asI1451
(lp1451
I57
aI515
aI1039
aI165
aI478
asI1452
(lp1452
I1458
aI1186
aI1130
aI1602
aI1593
asI1453
(lp1453
I1461
aI1455
aI123
aI1465
aI751
asI1454
(lp1454
I1523
aI1043
aI1109
aI1018
aI533
asI1455
(lp1455
I1461
aI1453
aI1465
aI123
aI751
asI1456
(lp1456
I1113
aI242
aI1445
aI1394
aI1529
asI1457
(lp1457
I1447
aI1460
aI1657
aI1627
aI1682
asI1458
(lp1458
I1452
aI1186
aI1130
aI1602
aI1593
asI1459
(lp1459
I1528
aI277
aI33
aI698
aI1656
asI1460
(lp1460
I1447
aI1457
aI1657
aI1627
aI1682
asI1461
(lp1461
I1453
aI1455
aI123
aI1465
aI751
asI1462
(lp1462
I1435
aI1312
aI1535
aI1378
aI1553
asI1463
(lp1463
I1186
aI814
aI1130
aI868
aI1452
asI1464
(lp1464
I1318
aI1422
aI1138
aI924
aI1100
asI1465
(lp1465
I1477
aI1476
aI284
aI712
aI1453
asI1466
(lp1466
I1628
aI1589
aI1585
aI942
aI903
asI1467
(lp1467
I1497
aI1064
aI1600
aI1418
aI1525
asI1468
(lp1468
I973
aI626
aI1191
aI757
aI1346
asI1469
(lp1469
I1441
aI1439
aI1051
aI1042
aI1400
asI1470
(lp1470
I367
aI287
aI1237
aI1643
aI307
asI1471
(lp1471
I1247
aI1530
aI1250
aI1415
aI1408
asI1472
(lp1472
I164
aI1518
aI596
aI591
aI1294
asI1473
(lp1473
I814
aI1063
aI1452
aI527
aI1458
asI1474
(lp1474
I1136
aI1552
aI1086
aI1432
aI1433
asI1475
(lp1475
I1536
aI256
aI524
aI1524
aI753
asI1476
(lp1476
I1477
aI284
aI1155
aI1595
aI535
asI1477
(lp1477
I1476
aI284
aI1465
aI1595
aI1596
asI1478
(lp1478
I846
aI722
aI696
aI764
aI1163
asI1479
(lp1479
I1248
aI1205
aI1296
aI1430
aI1159
asI1480
(lp1480
I148
aI84
aI225
aI454
aI1446
asI1481
(lp1481
I600
aI1000
aI85
aI1532
aI232
asI1482
(lp1482
I1602
aI1418
aI1664
aI1497
aI1616
asI1483
(lp1483
I625
aI588
aI1
aI164
aI591
asI1484
(lp1484
I1306
aI1359
aI1546
aI1548
aI1384
asI1485
(lp1485
I1500
aI1498
aI1492
aI1463
aI1141
asI1486
(lp1486
I1493
aI1494
aI1151
aI1501
aI1487
asI1487
(lp1487
I1289
aI1494
aI1493
aI1501
aI828
asI1488
(lp1488
I1027
aI1268
aI1191
aI163
aI1560
asI1489
(lp1489
I1303
aI388
aI577
aI1227
aI893
asI1490
(lp1490
I1492
aI1498
aI938
aI1676
aI1485
asI1491
(lp1491
I1304
aI1495
aI1485
aI1500
aI1498
asI1492
(lp1492
I1498
aI1485
aI1500
aI1490
aI1130
asI1493
(lp1493
I1494
aI1486
aI1151
aI1487
aI1289
asI1494
(lp1494
I1493
aI1486
aI1487
aI1151
aI1289
asI1495
(lp1495
I1463
aI1485
aI1500
aI1498
aI1491
asI1496
(lp1496
I667
aI840
aI1283
aI551
aI771
asI1497
(lp1497
I1418
aI1533
aI1467
aI1600
aI1616
asI1498
(lp1498
I1492
aI1485
aI1500
aI1490
aI1130
asI1499
(lp1499
I730
aI382
aI1404
aI1506
aI1005
asI1500
(lp1500
I1485
aI1498
aI1492
aI1141
aI1463
asI1501
(lp1501
I1066
aI1487
aI1494
aI1289
aI1493
asI1502
(lp1502
I599
aI1254
aI1621
aI1554
aI1304
asI1503
(lp1503
I740
aI724
aI495
aI1233
aI863
asI1504
(lp1504
I1655
aI1510
aI1613
aI1406
aI1648
asI1505
(lp1505
I1515
aI1123
aI711
aI1674
aI1223
asI1506
(lp1506
I1405
aI1499
aI632
aI605
aI1529
asI1507
(lp1507
I1619
aI1627
aI1582
aI1653
aI1543
asI1508
(lp1508
I314
aI560
aI777
aI779
aI1229
asI1509
(lp1509
I828
aI1250
aI1040
aI1289
aI341
asI1510
(lp1510
I1655
aI1504
aI987
aI1613
aI1436
asI1511
(lp1511
I1547
aI874
aI1466
aI1127
aI1326
asI1512
(lp1512
I1203
aI1021
aI856
aI543
aI529
asI1513
(lp1513
I1654
aI1527
aI335
aI1077
aI321
asI1514
(lp1514
I461
aI1361
aI1103
aI1238
aI1131
asI1515
(lp1515
I1657
aI1505
aI1627
aI1460
aI1447
asI1516
(lp1516
I1594
aI1243
aI141
aI1396
aI1189
asI1517
(lp1517
I1275
aI561
aI1605
aI1205
aI354
asI1518
(lp1518
I1472
aI596
aI164
aI1294
aI1596
asI1519
(lp1519
I1116
aI1643
aI1542
aI1237
aI367
asI1520
(lp1520
I1603
aI1673
aI677
aI1675
aI1668
asI1521
(lp1521
I677
aI1520
aI1603
aI1673
aI1675
asI1522
(lp1522
I1284
aI1081
aI1171
aI1161
aI1066
asI1523
(lp1523
I1454
aI1043
aI1299
aI1158
aI1524
asI1524
(lp1524
I1395
aI884
aI1555
aI1158
aI256
asI1525
(lp1525
I1533
aI1526
aI1223
aI1497
aI1616
asI1526
(lp1526
I1525
aI1223
aI1533
aI1674
aI1604
asI1527
(lp1527
I412
aI122
aI635
aI1411
aI1513
asI1528
(lp1528
I1459
aI1656
aI698
aI967
aI1448
asI1529
(lp1529
I1317
aI1148
aI1558
aI970
aI964
asI1530
(lp1530
I1247
aI1408
aI1471
aI1253
aI828
asI1531
(lp1531
I714
aI643
aI1588
aI1590
aI1567
asI1532
(lp1532
I94
aI227
aI1273
aI630
aI731
asI1533
(lp1533
I1525
aI1526
aI1616
aI1497
aI1418
asI1534
(lp1534
I1182
aI908
aI1297
aI860
aI1231
asI1535
(lp1535
I1312
aI1353
aI1556
aI1424
aI1462
asI1536
(lp1536
I753
aI1475
aI1266
aI1380
aI1097
asI1537
(lp1537
I1144
aI1541
aI1593
aI868
aI1368
asI1538
(lp1538
I1156
aI1677
aI1681
aI1657
aI857
asI1539
(lp1539
I46
aI1259
aI835
aI1158
aI980
asI1540
(lp1540
I159
aI140
aI804
aI944
aI373
asI1541
(lp1541
I1593
aI1398
aI1144
aI1602
aI1537
asI1542
(lp1542
I1613
aI287
aI1519
aI1396
aI348
asI1543
(lp1543
I1582
aI1653
aI1670
aI1614
aI1667
asI1544
(lp1544
I1346
aI861
aI957
aI1375
aI1175
asI1545
(lp1545
I622
aI609
aI924
aI691
aI945
asI1546
(lp1546
I1548
aI1557
aI1559
aI1561
aI1562
asI1547
(lp1547
I1511
aI1326
aI1658
aI75
aI610
asI1548
(lp1548
I1546
aI1557
aI1559
aI1561
aI1562
asI1549
(lp1549
I421
aI757
aI691
aI1544
aI1173
asI1550
(lp1550
I1631
aI822
aI1521
aI290
aI1310
asI1551
(lp1551
I1588
aI1590
aI1587
aI1586
aI1584
asI1552
(lp1552
I1433
aI776
aI1430
aI1432
aI1422
asI1553
(lp1553
I1585
aI903
aI1573
aI1378
aI1535
asI1554
(lp1554
I1608
aI1314
aI1088
aI1254
aI1502
asI1555
(lp1555
I855
aI1435
aI1462
aI1524
aI968
asI1556
(lp1556
I1557
aI1559
aI1546
aI1548
aI1561
asI1557
(lp1557
I1559
aI1561
aI1562
aI1563
aI1564
asI1558
(lp1558
I1529
aI1317
aI1148
aI921
aI980
asI1559
(lp1559
I1557
aI1561
aI1562
aI1563
aI1564
asI1560
(lp1560
I1379
aI1027
aI643
aI1531
aI714
asI1561
(lp1561
I1562
aI1559
aI1563
aI1557
aI1564
asI1562
(lp1562
I1563
aI1561
aI1564
aI1559
aI1565
asI1563
(lp1563
I1564
aI1562
aI1565
aI1561
aI1566
asI1564
(lp1564
I1565
aI1563
aI1566
aI1562
aI1567
asI1565
(lp1565
I1566
aI1564
aI1567
aI1563
aI1568
asI1566
(lp1566
I1567
aI1565
aI1568
aI1564
aI1569
asI1567
(lp1567
I1568
aI1566
aI1569
aI1565
aI1570
asI1568
(lp1568
I1569
aI1567
aI1570
aI1566
aI1571
asI1569
(lp1569
I1570
aI1568
aI1571
aI1567
aI1572
asI1570
(lp1570
I1571
aI1569
aI1572
aI1568
aI1567
asI1571
(lp1571
I1572
aI1570
aI1569
aI1574
aI1568
asI1572
(lp1572
I1571
aI1574
aI1570
aI1575
aI1569
asI1573
(lp1573
I1306
aI1556
aI1546
aI1548
aI1557
asI1574
(lp1574
I1575
aI1572
aI1576
aI1571
aI1577
asI1575
(lp1575
I1576
aI1574
aI1577
aI1572
aI1571
asI1576
(lp1576
I1577
aI1575
aI1574
aI1579
aI1572
asI1577
(lp1577
I1576
aI1579
aI1575
aI1580
aI1574
asI1578
(lp1578
I1572
aI1571
aI1574
aI1570
aI1575
asI1579
(lp1579
I1580
aI1581
aI1577
aI1583
aI1576
asI1580
(lp1580
I1581
aI1579
aI1583
aI1584
aI1577
asI1581
(lp1581
I1583
aI1580
aI1584
aI1579
aI1586
asI1582
(lp1582
I1653
aI1543
aI1619
aI1614
aI1236
asI1583
(lp1583
I1584
aI1581
aI1580
aI1586
aI1579
asI1584
(lp1584
I1583
aI1586
aI1581
aI1587
aI1580
asI1585
(lp1585
I1553
aI903
aI965
aI1018
aI1127
asI1586
(lp1586
I1587
aI1584
aI1583
aI1581
aI1580
asI1587
(lp1587
I1586
aI1584
aI1583
aI1581
aI1580
asI1588
(lp1588
I1590
aI1587
aI1586
aI1584
aI1583
asI1589
(lp1589
I1466
aI1628
aI643
aI942
aI1379
asI1590
(lp1590
I1588
aI1587
aI1586
aI1584
aI1583
asI1591
(lp1591
I359
aI1175
aI1161
aI1375
aI1069
asI1592
(lp1592
I1656
aI617
aI1448
aI1375
aI861
asI1593
(lp1593
I1541
aI1398
aI1602
aI1144
aI1418
asI1594
(lp1594
I1516
aI141
aI58
aI1251
aI113
asI1595
(lp1595
I1596
aI49
aI284
aI1409
aI1477
asI1596
(lp1596
I1595
aI49
aI284
aI1409
aI1477
asI1597
(lp1597
I1126
aI1386
aI1085
aI865
aI1026
asI1598
(lp1598
I350
aI994
aI1056
aI786
aI696
asI1599
(lp1599
I132
aI315
aI915
aI1293
aI1169
asI1600
(lp1600
I157
aI234
aI1201
aI1505
aI1497
asI1601
(lp1601
I1422
aI1433
aI1430
aI776
aI1004
asI1602
(lp1602
I1418
aI1482
aI1398
aI1593
aI1541
asI1603
(lp1603
I1520
aI1673
aI677
aI1675
aI1668
asI1604
(lp1604
I787
aI1674
aI1623
aI1642
aI1526
asI1605
(lp1605
I1318
aI1422
aI1248
aI1601
aI1464
asI1606
(lp1606
I1414
aI250
aI1453
aI101
aI1461
asI1607
(lp1607
I1639
aI1448
aI1656
aI1117
aI1528
asI1608
(lp1608
I1554
aI1314
aI1088
aI571
aI1083
asI1609
(lp1609
I375
aI1230
aI352
aI1001
aI743
asI1610
(lp1610
I1671
aI985
aI3
aI1234
aI859
asI1611
(lp1611
I1682
aI1156
aI1677
aI1310
aI1681
asI1612
(lp1612
I557
aI1107
aI918
aI49
aI471
asI1613
(lp1613
I1504
aI1301
aI1510
aI1542
aI1648
asI1614
(lp1614
I1543
aI1582
aI1653
aI1670
aI1667
asI1615
(lp1615
I1426
aI1168
aI1284
aI1110
aI1313
asI1616
(lp1616
I1636
aI1645
aI1650
aI1533
aI1651
asI1617
(lp1617
I1432
aI1430
aI1159
aI1224
aI1433
asI1618
(lp1618
I700
aI683
aI1092
aI422
aI1419
asI1619
(lp1619
I1582
aI1653
aI1543
aI1507
aI1614
asI1620
(lp1620
I999
aI409
aI472
aI821
aI748
asI1621
(lp1621
I1304
aI1502
aI599
aI1254
aI1491
asI1622
(lp1622
I1672
aI1308
aI102
aI342
aI1105
asI1623
(lp1623
I1674
aI1123
aI1223
aI1604
aI787
asI1624
(lp1624
I592
aI1599
aI1533
aI1447
aI1406
asI1625
(lp1625
I1670
aI1667
aI1668
aI1619
aI1614
asI1626
(lp1626
I556
aI53
aI962
aI583
aI772
asI1627
(lp1627
I1457
aI1460
aI1507
aI1447
aI1619
asI1628
(lp1628
I1466
aI942
aI1589
aI1288
aI965
asI1629
(lp1629
I238
aI1080
aI1385
aI1216
aI1388
asI1630
(lp1630
I1635
aI1632
aI1633
aI1637
aI1638
asI1631
(lp1631
I1630
aI1635
aI1632
aI1633
aI1637
asI1632
(lp1632
I1633
aI1635
aI1637
aI1638
aI1630
asI1633
(lp1633
I1632
aI1637
aI1635
aI1638
aI1630
asI1634
(lp1634
I1648
aI1436
aI1510
aI987
aI1310
asI1635
(lp1635
I1632
aI1633
aI1630
aI1637
aI1638
asI1636
(lp1636
I1645
aI1650
aI1651
aI1616
aI1602
asI1637
(lp1637
I1638
aI1633
aI1632
aI1635
aI1640
asI1638
(lp1638
I1637
aI1633
aI1632
aI1640
aI1641
asI1639
(lp1639
I1448
aI1656
aI617
aI1592
aI1607
asI1640
(lp1640
I1641
aI1638
aI1637
aI1633
aI1632
asI1641
(lp1641
I1640
aI1638
aI1637
aI1633
aI1632
asI1642
(lp1642
I26
aI447
aI1665
aI1666
aI1669
asI1643
(lp1643
I1124
aI850
aI1519
aI1116
aI1251
asI1644
(lp1644
I1107
aI49
aI918
aI557
aI1612
asI1645
(lp1645
I1650
aI1651
aI1636
aI1616
aI1602
asI1646
(lp1646
I1647
aI1649
aI1641
aI1640
aI1638
asI1647
(lp1647
I1646
aI1649
aI1641
aI1640
aI1638
asI1648
(lp1648
I1436
aI1634
aI1510
aI1613
aI1504
asI1649
(lp1649
I1646
aI1647
aI1641
aI1640
aI1638
asI1650
(lp1650
I1645
aI1651
aI1636
aI1616
aI1602
asI1651
(lp1651
I1650
aI1645
aI1636
aI1616
aI1602
asI1652
(lp1652
I325
aI875
aI859
aI962
aI1059
asI1653
(lp1653
I1582
aI1543
aI1619
aI1614
aI1236
asI1654
(lp1654
I1513
aI1083
aI1527
aI1403
aI412
asI1655
(lp1655
I1510
aI1504
aI987
aI1613
aI1679
asI1656
(lp1656
I1448
aI1592
aI1639
aI617
aI698
asI1657
(lp1657
I1460
aI1447
aI1457
aI1682
aI1627
asI1658
(lp1658
I1326
aI935
aI1417
aI1106
aI1547
asI1659
(lp1659
I565
aI1309
aI801
aI901
aI542
asI1660
(lp1660
I231
aI1074
aI706
aI1309
aI159
asI1661
(lp1661
I717
aI563
aI1061
aI858
aI560
asI1662
(lp1662
I1235
aI1673
aI677
aI1675
aI1520
asI1663
(lp1663
I1669
aI1666
aI1665
aI1642
aI1417
asI1664
(lp1664
I1482
aI1130
aI1450
aI1602
aI1418
asI1665
(lp1665
I1666
aI1669
aI1663
aI1417
aI1642
asI1666
(lp1666
I1669
aI1665
aI1663
aI1642
aI1417
asI1667
(lp1667
I1668
aI1670
aI1543
aI1614
aI1647
asI1668
(lp1668
I1667
aI1670
aI1543
aI1614
aI1647
asI1669
(lp1669
I1666
aI1663
aI1665
aI1642
aI1417
asI1670
(lp1670
I1667
aI1668
aI1543
aI1614
aI1647
asI1671
(lp1671
I1610
aI1234
aI859
aI37
aI985
asI1672
(lp1672
I102
aI1622
aI912
aI825
aI807
asI1673
(lp1673
I1603
aI1520
aI1675
aI677
aI1670
asI1674
(lp1674
I1623
aI1604
aI1123
aI1223
aI787
asI1675
(lp1675
I1673
aI1670
aI1668
aI1667
aI1543
asI1676
(lp1676
I938
aI1490
aI1492
aI1498
aI1521
asI1677
(lp1677
I1681
aI1156
aI1611
aI1538
aI1310
asI1678
(lp1678
I1300
aI1276
aI668
aI1179
aI560
asI1679
(lp1679
I987
aI1681
aI857
aI1674
aI1538
asI1680
(lp1680
I696
aI1478
aI1163
aI846
aI1598
asI1681
(lp1681
I1677
aI857
aI1156
aI1538
aI1310
asI1682
(lp1682
I1156
aI1611
aI1460
aI1447
aI1457
as.